
kernel/kernel:     file format elf64-littleriscv


Disassembly of section .text:

0000000080000000 <_entry>:
    80000000:	00009117          	auipc	sp,0x9
    80000004:	a4010113          	addi	sp,sp,-1472 # 80008a40 <stack0>
    80000008:	6505                	lui	a0,0x1
    8000000a:	f14025f3          	csrr	a1,mhartid
    8000000e:	0585                	addi	a1,a1,1
    80000010:	02b50533          	mul	a0,a0,a1
    80000014:	912a                	add	sp,sp,a0
    80000016:	078000ef          	jal	ra,8000008e <start>

000000008000001a <spin>:
    8000001a:	a001                	j	8000001a <spin>

000000008000001c <timerinit>:
    8000001c:	1141                	addi	sp,sp,-16
    8000001e:	e422                	sd	s0,8(sp)
    80000020:	0800                	addi	s0,sp,16
    80000022:	f14027f3          	csrr	a5,mhartid
    80000026:	0007869b          	sext.w	a3,a5
    8000002a:	0037979b          	slliw	a5,a5,0x3
    8000002e:	02004737          	lui	a4,0x2004
    80000032:	97ba                	add	a5,a5,a4
    80000034:	0200c737          	lui	a4,0x200c
    80000038:	ff873583          	ld	a1,-8(a4) # 200bff8 <_entry-0x7dff4008>
    8000003c:	000f4637          	lui	a2,0xf4
    80000040:	24060613          	addi	a2,a2,576 # f4240 <_entry-0x7ff0bdc0>
    80000044:	95b2                	add	a1,a1,a2
    80000046:	e38c                	sd	a1,0(a5)
    80000048:	00269713          	slli	a4,a3,0x2
    8000004c:	9736                	add	a4,a4,a3
    8000004e:	00371693          	slli	a3,a4,0x3
    80000052:	00009717          	auipc	a4,0x9
    80000056:	8ae70713          	addi	a4,a4,-1874 # 80008900 <timer_scratch>
    8000005a:	9736                	add	a4,a4,a3
    8000005c:	ef1c                	sd	a5,24(a4)
    8000005e:	f310                	sd	a2,32(a4)
    80000060:	34071073          	csrw	mscratch,a4
    80000064:	00006797          	auipc	a5,0x6
    80000068:	53c78793          	addi	a5,a5,1340 # 800065a0 <timervec>
    8000006c:	30579073          	csrw	mtvec,a5
    80000070:	300027f3          	csrr	a5,mstatus
    80000074:	0087e793          	ori	a5,a5,8
    80000078:	30079073          	csrw	mstatus,a5
    8000007c:	304027f3          	csrr	a5,mie
    80000080:	0807e793          	ori	a5,a5,128
    80000084:	30479073          	csrw	mie,a5
    80000088:	6422                	ld	s0,8(sp)
    8000008a:	0141                	addi	sp,sp,16
    8000008c:	8082                	ret

000000008000008e <start>:
    8000008e:	1141                	addi	sp,sp,-16
    80000090:	e406                	sd	ra,8(sp)
    80000092:	e022                	sd	s0,0(sp)
    80000094:	0800                	addi	s0,sp,16
    80000096:	300027f3          	csrr	a5,mstatus
    8000009a:	7779                	lui	a4,0xffffe
    8000009c:	7ff70713          	addi	a4,a4,2047 # ffffffffffffe7ff <end+0xffffffff7ffdb68f>
    800000a0:	8ff9                	and	a5,a5,a4
    800000a2:	6705                	lui	a4,0x1
    800000a4:	80070713          	addi	a4,a4,-2048 # 800 <_entry-0x7ffff800>
    800000a8:	8fd9                	or	a5,a5,a4
    800000aa:	30079073          	csrw	mstatus,a5
    800000ae:	00001797          	auipc	a5,0x1
    800000b2:	dca78793          	addi	a5,a5,-566 # 80000e78 <main>
    800000b6:	34179073          	csrw	mepc,a5
    800000ba:	4781                	li	a5,0
    800000bc:	18079073          	csrw	satp,a5
    800000c0:	67c1                	lui	a5,0x10
    800000c2:	17fd                	addi	a5,a5,-1
    800000c4:	30279073          	csrw	medeleg,a5
    800000c8:	30379073          	csrw	mideleg,a5
    800000cc:	104027f3          	csrr	a5,sie
    800000d0:	2227e793          	ori	a5,a5,546
    800000d4:	10479073          	csrw	sie,a5
    800000d8:	57fd                	li	a5,-1
    800000da:	83a9                	srli	a5,a5,0xa
    800000dc:	3b079073          	csrw	pmpaddr0,a5
    800000e0:	47bd                	li	a5,15
    800000e2:	3a079073          	csrw	pmpcfg0,a5
    800000e6:	00000097          	auipc	ra,0x0
    800000ea:	f36080e7          	jalr	-202(ra) # 8000001c <timerinit>
    800000ee:	f14027f3          	csrr	a5,mhartid
    800000f2:	2781                	sext.w	a5,a5
    800000f4:	823e                	mv	tp,a5
    800000f6:	30200073          	mret
    800000fa:	60a2                	ld	ra,8(sp)
    800000fc:	6402                	ld	s0,0(sp)
    800000fe:	0141                	addi	sp,sp,16
    80000100:	8082                	ret

0000000080000102 <consolewrite>:
    80000102:	715d                	addi	sp,sp,-80
    80000104:	e486                	sd	ra,72(sp)
    80000106:	e0a2                	sd	s0,64(sp)
    80000108:	fc26                	sd	s1,56(sp)
    8000010a:	f84a                	sd	s2,48(sp)
    8000010c:	f44e                	sd	s3,40(sp)
    8000010e:	f052                	sd	s4,32(sp)
    80000110:	ec56                	sd	s5,24(sp)
    80000112:	0880                	addi	s0,sp,80
    80000114:	04c05663          	blez	a2,80000160 <consolewrite+0x5e>
    80000118:	8a2a                	mv	s4,a0
    8000011a:	84ae                	mv	s1,a1
    8000011c:	89b2                	mv	s3,a2
    8000011e:	4901                	li	s2,0
    80000120:	5afd                	li	s5,-1
    80000122:	4685                	li	a3,1
    80000124:	8626                	mv	a2,s1
    80000126:	85d2                	mv	a1,s4
    80000128:	fbf40513          	addi	a0,s0,-65
    8000012c:	00002097          	auipc	ra,0x2
    80000130:	45c080e7          	jalr	1116(ra) # 80002588 <either_copyin>
    80000134:	01550c63          	beq	a0,s5,8000014c <consolewrite+0x4a>
    80000138:	fbf44503          	lbu	a0,-65(s0)
    8000013c:	00000097          	auipc	ra,0x0
    80000140:	780080e7          	jalr	1920(ra) # 800008bc <uartputc>
    80000144:	2905                	addiw	s2,s2,1
    80000146:	0485                	addi	s1,s1,1
    80000148:	fd299de3          	bne	s3,s2,80000122 <consolewrite+0x20>
    8000014c:	854a                	mv	a0,s2
    8000014e:	60a6                	ld	ra,72(sp)
    80000150:	6406                	ld	s0,64(sp)
    80000152:	74e2                	ld	s1,56(sp)
    80000154:	7942                	ld	s2,48(sp)
    80000156:	79a2                	ld	s3,40(sp)
    80000158:	7a02                	ld	s4,32(sp)
    8000015a:	6ae2                	ld	s5,24(sp)
    8000015c:	6161                	addi	sp,sp,80
    8000015e:	8082                	ret
    80000160:	4901                	li	s2,0
    80000162:	b7ed                	j	8000014c <consolewrite+0x4a>

0000000080000164 <consoleread>:
    80000164:	7159                	addi	sp,sp,-112
    80000166:	f486                	sd	ra,104(sp)
    80000168:	f0a2                	sd	s0,96(sp)
    8000016a:	eca6                	sd	s1,88(sp)
    8000016c:	e8ca                	sd	s2,80(sp)
    8000016e:	e4ce                	sd	s3,72(sp)
    80000170:	e0d2                	sd	s4,64(sp)
    80000172:	fc56                	sd	s5,56(sp)
    80000174:	f85a                	sd	s6,48(sp)
    80000176:	f45e                	sd	s7,40(sp)
    80000178:	f062                	sd	s8,32(sp)
    8000017a:	ec66                	sd	s9,24(sp)
    8000017c:	e86a                	sd	s10,16(sp)
    8000017e:	1880                	addi	s0,sp,112
    80000180:	8aaa                	mv	s5,a0
    80000182:	8a2e                	mv	s4,a1
    80000184:	89b2                	mv	s3,a2
    80000186:	00060b1b          	sext.w	s6,a2
    8000018a:	00011517          	auipc	a0,0x11
    8000018e:	8b650513          	addi	a0,a0,-1866 # 80010a40 <cons>
    80000192:	00001097          	auipc	ra,0x1
    80000196:	a44080e7          	jalr	-1468(ra) # 80000bd6 <acquire>
    8000019a:	00011497          	auipc	s1,0x11
    8000019e:	8a648493          	addi	s1,s1,-1882 # 80010a40 <cons>
    800001a2:	00011917          	auipc	s2,0x11
    800001a6:	93690913          	addi	s2,s2,-1738 # 80010ad8 <cons+0x98>
    800001aa:	4b91                	li	s7,4
    800001ac:	5c7d                	li	s8,-1
    800001ae:	4ca9                	li	s9,10
    800001b0:	07305b63          	blez	s3,80000226 <consoleread+0xc2>
    800001b4:	0984a783          	lw	a5,152(s1)
    800001b8:	09c4a703          	lw	a4,156(s1)
    800001bc:	02f71763          	bne	a4,a5,800001ea <consoleread+0x86>
    800001c0:	00001097          	auipc	ra,0x1
    800001c4:	7ec080e7          	jalr	2028(ra) # 800019ac <myproc>
    800001c8:	00002097          	auipc	ra,0x2
    800001cc:	20a080e7          	jalr	522(ra) # 800023d2 <killed>
    800001d0:	e535                	bnez	a0,8000023c <consoleread+0xd8>
    800001d2:	85a6                	mv	a1,s1
    800001d4:	854a                	mv	a0,s2
    800001d6:	00002097          	auipc	ra,0x2
    800001da:	f48080e7          	jalr	-184(ra) # 8000211e <sleep>
    800001de:	0984a783          	lw	a5,152(s1)
    800001e2:	09c4a703          	lw	a4,156(s1)
    800001e6:	fcf70de3          	beq	a4,a5,800001c0 <consoleread+0x5c>
    800001ea:	0017871b          	addiw	a4,a5,1
    800001ee:	08e4ac23          	sw	a4,152(s1)
    800001f2:	07f7f713          	andi	a4,a5,127
    800001f6:	9726                	add	a4,a4,s1
    800001f8:	01874703          	lbu	a4,24(a4)
    800001fc:	00070d1b          	sext.w	s10,a4
    80000200:	077d0563          	beq	s10,s7,8000026a <consoleread+0x106>
    80000204:	f8e40fa3          	sb	a4,-97(s0)
    80000208:	4685                	li	a3,1
    8000020a:	f9f40613          	addi	a2,s0,-97
    8000020e:	85d2                	mv	a1,s4
    80000210:	8556                	mv	a0,s5
    80000212:	00002097          	auipc	ra,0x2
    80000216:	320080e7          	jalr	800(ra) # 80002532 <either_copyout>
    8000021a:	01850663          	beq	a0,s8,80000226 <consoleread+0xc2>
    8000021e:	0a05                	addi	s4,s4,1
    80000220:	39fd                	addiw	s3,s3,-1
    80000222:	f99d17e3          	bne	s10,s9,800001b0 <consoleread+0x4c>
    80000226:	00011517          	auipc	a0,0x11
    8000022a:	81a50513          	addi	a0,a0,-2022 # 80010a40 <cons>
    8000022e:	00001097          	auipc	ra,0x1
    80000232:	a5c080e7          	jalr	-1444(ra) # 80000c8a <release>
    80000236:	413b053b          	subw	a0,s6,s3
    8000023a:	a811                	j	8000024e <consoleread+0xea>
    8000023c:	00011517          	auipc	a0,0x11
    80000240:	80450513          	addi	a0,a0,-2044 # 80010a40 <cons>
    80000244:	00001097          	auipc	ra,0x1
    80000248:	a46080e7          	jalr	-1466(ra) # 80000c8a <release>
    8000024c:	557d                	li	a0,-1
    8000024e:	70a6                	ld	ra,104(sp)
    80000250:	7406                	ld	s0,96(sp)
    80000252:	64e6                	ld	s1,88(sp)
    80000254:	6946                	ld	s2,80(sp)
    80000256:	69a6                	ld	s3,72(sp)
    80000258:	6a06                	ld	s4,64(sp)
    8000025a:	7ae2                	ld	s5,56(sp)
    8000025c:	7b42                	ld	s6,48(sp)
    8000025e:	7ba2                	ld	s7,40(sp)
    80000260:	7c02                	ld	s8,32(sp)
    80000262:	6ce2                	ld	s9,24(sp)
    80000264:	6d42                	ld	s10,16(sp)
    80000266:	6165                	addi	sp,sp,112
    80000268:	8082                	ret
    8000026a:	0009871b          	sext.w	a4,s3
    8000026e:	fb677ce3          	bgeu	a4,s6,80000226 <consoleread+0xc2>
    80000272:	00011717          	auipc	a4,0x11
    80000276:	86f72323          	sw	a5,-1946(a4) # 80010ad8 <cons+0x98>
    8000027a:	b775                	j	80000226 <consoleread+0xc2>

000000008000027c <consputc>:
    8000027c:	1141                	addi	sp,sp,-16
    8000027e:	e406                	sd	ra,8(sp)
    80000280:	e022                	sd	s0,0(sp)
    80000282:	0800                	addi	s0,sp,16
    80000284:	10000793          	li	a5,256
    80000288:	00f50a63          	beq	a0,a5,8000029c <consputc+0x20>
    8000028c:	00000097          	auipc	ra,0x0
    80000290:	55e080e7          	jalr	1374(ra) # 800007ea <uartputc_sync>
    80000294:	60a2                	ld	ra,8(sp)
    80000296:	6402                	ld	s0,0(sp)
    80000298:	0141                	addi	sp,sp,16
    8000029a:	8082                	ret
    8000029c:	4521                	li	a0,8
    8000029e:	00000097          	auipc	ra,0x0
    800002a2:	54c080e7          	jalr	1356(ra) # 800007ea <uartputc_sync>
    800002a6:	02000513          	li	a0,32
    800002aa:	00000097          	auipc	ra,0x0
    800002ae:	540080e7          	jalr	1344(ra) # 800007ea <uartputc_sync>
    800002b2:	4521                	li	a0,8
    800002b4:	00000097          	auipc	ra,0x0
    800002b8:	536080e7          	jalr	1334(ra) # 800007ea <uartputc_sync>
    800002bc:	bfe1                	j	80000294 <consputc+0x18>

00000000800002be <consoleintr>:
    800002be:	1101                	addi	sp,sp,-32
    800002c0:	ec06                	sd	ra,24(sp)
    800002c2:	e822                	sd	s0,16(sp)
    800002c4:	e426                	sd	s1,8(sp)
    800002c6:	e04a                	sd	s2,0(sp)
    800002c8:	1000                	addi	s0,sp,32
    800002ca:	84aa                	mv	s1,a0
    800002cc:	00010517          	auipc	a0,0x10
    800002d0:	77450513          	addi	a0,a0,1908 # 80010a40 <cons>
    800002d4:	00001097          	auipc	ra,0x1
    800002d8:	902080e7          	jalr	-1790(ra) # 80000bd6 <acquire>
    800002dc:	47d5                	li	a5,21
    800002de:	0af48663          	beq	s1,a5,8000038a <consoleintr+0xcc>
    800002e2:	0297ca63          	blt	a5,s1,80000316 <consoleintr+0x58>
    800002e6:	47a1                	li	a5,8
    800002e8:	0ef48763          	beq	s1,a5,800003d6 <consoleintr+0x118>
    800002ec:	47c1                	li	a5,16
    800002ee:	10f49a63          	bne	s1,a5,80000402 <consoleintr+0x144>
    800002f2:	00002097          	auipc	ra,0x2
    800002f6:	2ec080e7          	jalr	748(ra) # 800025de <procdump>
    800002fa:	00010517          	auipc	a0,0x10
    800002fe:	74650513          	addi	a0,a0,1862 # 80010a40 <cons>
    80000302:	00001097          	auipc	ra,0x1
    80000306:	988080e7          	jalr	-1656(ra) # 80000c8a <release>
    8000030a:	60e2                	ld	ra,24(sp)
    8000030c:	6442                	ld	s0,16(sp)
    8000030e:	64a2                	ld	s1,8(sp)
    80000310:	6902                	ld	s2,0(sp)
    80000312:	6105                	addi	sp,sp,32
    80000314:	8082                	ret
    80000316:	07f00793          	li	a5,127
    8000031a:	0af48e63          	beq	s1,a5,800003d6 <consoleintr+0x118>
    8000031e:	00010717          	auipc	a4,0x10
    80000322:	72270713          	addi	a4,a4,1826 # 80010a40 <cons>
    80000326:	0a072783          	lw	a5,160(a4)
    8000032a:	09872703          	lw	a4,152(a4)
    8000032e:	9f99                	subw	a5,a5,a4
    80000330:	07f00713          	li	a4,127
    80000334:	fcf763e3          	bltu	a4,a5,800002fa <consoleintr+0x3c>
    80000338:	47b5                	li	a5,13
    8000033a:	0cf48763          	beq	s1,a5,80000408 <consoleintr+0x14a>
    8000033e:	8526                	mv	a0,s1
    80000340:	00000097          	auipc	ra,0x0
    80000344:	f3c080e7          	jalr	-196(ra) # 8000027c <consputc>
    80000348:	00010797          	auipc	a5,0x10
    8000034c:	6f878793          	addi	a5,a5,1784 # 80010a40 <cons>
    80000350:	0a07a683          	lw	a3,160(a5)
    80000354:	0016871b          	addiw	a4,a3,1
    80000358:	0007061b          	sext.w	a2,a4
    8000035c:	0ae7a023          	sw	a4,160(a5)
    80000360:	07f6f693          	andi	a3,a3,127
    80000364:	97b6                	add	a5,a5,a3
    80000366:	00978c23          	sb	s1,24(a5)
    8000036a:	47a9                	li	a5,10
    8000036c:	0cf48563          	beq	s1,a5,80000436 <consoleintr+0x178>
    80000370:	4791                	li	a5,4
    80000372:	0cf48263          	beq	s1,a5,80000436 <consoleintr+0x178>
    80000376:	00010797          	auipc	a5,0x10
    8000037a:	7627a783          	lw	a5,1890(a5) # 80010ad8 <cons+0x98>
    8000037e:	9f1d                	subw	a4,a4,a5
    80000380:	08000793          	li	a5,128
    80000384:	f6f71be3          	bne	a4,a5,800002fa <consoleintr+0x3c>
    80000388:	a07d                	j	80000436 <consoleintr+0x178>
    8000038a:	00010717          	auipc	a4,0x10
    8000038e:	6b670713          	addi	a4,a4,1718 # 80010a40 <cons>
    80000392:	0a072783          	lw	a5,160(a4)
    80000396:	09c72703          	lw	a4,156(a4)
    8000039a:	00010497          	auipc	s1,0x10
    8000039e:	6a648493          	addi	s1,s1,1702 # 80010a40 <cons>
    800003a2:	4929                	li	s2,10
    800003a4:	f4f70be3          	beq	a4,a5,800002fa <consoleintr+0x3c>
    800003a8:	37fd                	addiw	a5,a5,-1
    800003aa:	07f7f713          	andi	a4,a5,127
    800003ae:	9726                	add	a4,a4,s1
    800003b0:	01874703          	lbu	a4,24(a4)
    800003b4:	f52703e3          	beq	a4,s2,800002fa <consoleintr+0x3c>
    800003b8:	0af4a023          	sw	a5,160(s1)
    800003bc:	10000513          	li	a0,256
    800003c0:	00000097          	auipc	ra,0x0
    800003c4:	ebc080e7          	jalr	-324(ra) # 8000027c <consputc>
    800003c8:	0a04a783          	lw	a5,160(s1)
    800003cc:	09c4a703          	lw	a4,156(s1)
    800003d0:	fcf71ce3          	bne	a4,a5,800003a8 <consoleintr+0xea>
    800003d4:	b71d                	j	800002fa <consoleintr+0x3c>
    800003d6:	00010717          	auipc	a4,0x10
    800003da:	66a70713          	addi	a4,a4,1642 # 80010a40 <cons>
    800003de:	0a072783          	lw	a5,160(a4)
    800003e2:	09c72703          	lw	a4,156(a4)
    800003e6:	f0f70ae3          	beq	a4,a5,800002fa <consoleintr+0x3c>
    800003ea:	37fd                	addiw	a5,a5,-1
    800003ec:	00010717          	auipc	a4,0x10
    800003f0:	6ef72a23          	sw	a5,1780(a4) # 80010ae0 <cons+0xa0>
    800003f4:	10000513          	li	a0,256
    800003f8:	00000097          	auipc	ra,0x0
    800003fc:	e84080e7          	jalr	-380(ra) # 8000027c <consputc>
    80000400:	bded                	j	800002fa <consoleintr+0x3c>
    80000402:	ee048ce3          	beqz	s1,800002fa <consoleintr+0x3c>
    80000406:	bf21                	j	8000031e <consoleintr+0x60>
    80000408:	4529                	li	a0,10
    8000040a:	00000097          	auipc	ra,0x0
    8000040e:	e72080e7          	jalr	-398(ra) # 8000027c <consputc>
    80000412:	00010797          	auipc	a5,0x10
    80000416:	62e78793          	addi	a5,a5,1582 # 80010a40 <cons>
    8000041a:	0a07a703          	lw	a4,160(a5)
    8000041e:	0017069b          	addiw	a3,a4,1
    80000422:	0006861b          	sext.w	a2,a3
    80000426:	0ad7a023          	sw	a3,160(a5)
    8000042a:	07f77713          	andi	a4,a4,127
    8000042e:	97ba                	add	a5,a5,a4
    80000430:	4729                	li	a4,10
    80000432:	00e78c23          	sb	a4,24(a5)
    80000436:	00010797          	auipc	a5,0x10
    8000043a:	6ac7a323          	sw	a2,1702(a5) # 80010adc <cons+0x9c>
    8000043e:	00010517          	auipc	a0,0x10
    80000442:	69a50513          	addi	a0,a0,1690 # 80010ad8 <cons+0x98>
    80000446:	00002097          	auipc	ra,0x2
    8000044a:	d3c080e7          	jalr	-708(ra) # 80002182 <wakeup>
    8000044e:	b575                	j	800002fa <consoleintr+0x3c>

0000000080000450 <consoleinit>:
    80000450:	1141                	addi	sp,sp,-16
    80000452:	e406                	sd	ra,8(sp)
    80000454:	e022                	sd	s0,0(sp)
    80000456:	0800                	addi	s0,sp,16
    80000458:	00008597          	auipc	a1,0x8
    8000045c:	bb858593          	addi	a1,a1,-1096 # 80008010 <etext+0x10>
    80000460:	00010517          	auipc	a0,0x10
    80000464:	5e050513          	addi	a0,a0,1504 # 80010a40 <cons>
    80000468:	00000097          	auipc	ra,0x0
    8000046c:	6de080e7          	jalr	1758(ra) # 80000b46 <initlock>
    80000470:	00000097          	auipc	ra,0x0
    80000474:	32a080e7          	jalr	810(ra) # 8000079a <uartinit>
    80000478:	00022797          	auipc	a5,0x22
    8000047c:	b6078793          	addi	a5,a5,-1184 # 80021fd8 <devsw>
    80000480:	00000717          	auipc	a4,0x0
    80000484:	ce470713          	addi	a4,a4,-796 # 80000164 <consoleread>
    80000488:	eb98                	sd	a4,16(a5)
    8000048a:	00000717          	auipc	a4,0x0
    8000048e:	c7870713          	addi	a4,a4,-904 # 80000102 <consolewrite>
    80000492:	ef98                	sd	a4,24(a5)
    80000494:	60a2                	ld	ra,8(sp)
    80000496:	6402                	ld	s0,0(sp)
    80000498:	0141                	addi	sp,sp,16
    8000049a:	8082                	ret

000000008000049c <printint>:
    8000049c:	7179                	addi	sp,sp,-48
    8000049e:	f406                	sd	ra,40(sp)
    800004a0:	f022                	sd	s0,32(sp)
    800004a2:	ec26                	sd	s1,24(sp)
    800004a4:	e84a                	sd	s2,16(sp)
    800004a6:	1800                	addi	s0,sp,48
    800004a8:	c219                	beqz	a2,800004ae <printint+0x12>
    800004aa:	08054663          	bltz	a0,80000536 <printint+0x9a>
    800004ae:	2501                	sext.w	a0,a0
    800004b0:	4881                	li	a7,0
    800004b2:	fd040693          	addi	a3,s0,-48
    800004b6:	4701                	li	a4,0
    800004b8:	2581                	sext.w	a1,a1
    800004ba:	00008617          	auipc	a2,0x8
    800004be:	b8660613          	addi	a2,a2,-1146 # 80008040 <digits>
    800004c2:	883a                	mv	a6,a4
    800004c4:	2705                	addiw	a4,a4,1
    800004c6:	02b577bb          	remuw	a5,a0,a1
    800004ca:	1782                	slli	a5,a5,0x20
    800004cc:	9381                	srli	a5,a5,0x20
    800004ce:	97b2                	add	a5,a5,a2
    800004d0:	0007c783          	lbu	a5,0(a5)
    800004d4:	00f68023          	sb	a5,0(a3)
    800004d8:	0005079b          	sext.w	a5,a0
    800004dc:	02b5553b          	divuw	a0,a0,a1
    800004e0:	0685                	addi	a3,a3,1
    800004e2:	feb7f0e3          	bgeu	a5,a1,800004c2 <printint+0x26>
    800004e6:	00088b63          	beqz	a7,800004fc <printint+0x60>
    800004ea:	fe040793          	addi	a5,s0,-32
    800004ee:	973e                	add	a4,a4,a5
    800004f0:	02d00793          	li	a5,45
    800004f4:	fef70823          	sb	a5,-16(a4)
    800004f8:	0028071b          	addiw	a4,a6,2
    800004fc:	02e05763          	blez	a4,8000052a <printint+0x8e>
    80000500:	fd040793          	addi	a5,s0,-48
    80000504:	00e784b3          	add	s1,a5,a4
    80000508:	fff78913          	addi	s2,a5,-1
    8000050c:	993a                	add	s2,s2,a4
    8000050e:	377d                	addiw	a4,a4,-1
    80000510:	1702                	slli	a4,a4,0x20
    80000512:	9301                	srli	a4,a4,0x20
    80000514:	40e90933          	sub	s2,s2,a4
    80000518:	fff4c503          	lbu	a0,-1(s1)
    8000051c:	00000097          	auipc	ra,0x0
    80000520:	d60080e7          	jalr	-672(ra) # 8000027c <consputc>
    80000524:	14fd                	addi	s1,s1,-1
    80000526:	ff2499e3          	bne	s1,s2,80000518 <printint+0x7c>
    8000052a:	70a2                	ld	ra,40(sp)
    8000052c:	7402                	ld	s0,32(sp)
    8000052e:	64e2                	ld	s1,24(sp)
    80000530:	6942                	ld	s2,16(sp)
    80000532:	6145                	addi	sp,sp,48
    80000534:	8082                	ret
    80000536:	40a0053b          	negw	a0,a0
    8000053a:	4885                	li	a7,1
    8000053c:	bf9d                	j	800004b2 <printint+0x16>

000000008000053e <panic>:
    8000053e:	1101                	addi	sp,sp,-32
    80000540:	ec06                	sd	ra,24(sp)
    80000542:	e822                	sd	s0,16(sp)
    80000544:	e426                	sd	s1,8(sp)
    80000546:	1000                	addi	s0,sp,32
    80000548:	84aa                	mv	s1,a0
    8000054a:	00010797          	auipc	a5,0x10
    8000054e:	5a07ab23          	sw	zero,1462(a5) # 80010b00 <pr+0x18>
    80000552:	00008517          	auipc	a0,0x8
    80000556:	ac650513          	addi	a0,a0,-1338 # 80008018 <etext+0x18>
    8000055a:	00000097          	auipc	ra,0x0
    8000055e:	02e080e7          	jalr	46(ra) # 80000588 <printf>
    80000562:	8526                	mv	a0,s1
    80000564:	00000097          	auipc	ra,0x0
    80000568:	024080e7          	jalr	36(ra) # 80000588 <printf>
    8000056c:	00008517          	auipc	a0,0x8
    80000570:	e2c50513          	addi	a0,a0,-468 # 80008398 <states.0+0xd0>
    80000574:	00000097          	auipc	ra,0x0
    80000578:	014080e7          	jalr	20(ra) # 80000588 <printf>
    8000057c:	4785                	li	a5,1
    8000057e:	00008717          	auipc	a4,0x8
    80000582:	34f72123          	sw	a5,834(a4) # 800088c0 <panicked>
    80000586:	a001                	j	80000586 <panic+0x48>

0000000080000588 <printf>:
    80000588:	7131                	addi	sp,sp,-192
    8000058a:	fc86                	sd	ra,120(sp)
    8000058c:	f8a2                	sd	s0,112(sp)
    8000058e:	f4a6                	sd	s1,104(sp)
    80000590:	f0ca                	sd	s2,96(sp)
    80000592:	ecce                	sd	s3,88(sp)
    80000594:	e8d2                	sd	s4,80(sp)
    80000596:	e4d6                	sd	s5,72(sp)
    80000598:	e0da                	sd	s6,64(sp)
    8000059a:	fc5e                	sd	s7,56(sp)
    8000059c:	f862                	sd	s8,48(sp)
    8000059e:	f466                	sd	s9,40(sp)
    800005a0:	f06a                	sd	s10,32(sp)
    800005a2:	ec6e                	sd	s11,24(sp)
    800005a4:	0100                	addi	s0,sp,128
    800005a6:	8a2a                	mv	s4,a0
    800005a8:	e40c                	sd	a1,8(s0)
    800005aa:	e810                	sd	a2,16(s0)
    800005ac:	ec14                	sd	a3,24(s0)
    800005ae:	f018                	sd	a4,32(s0)
    800005b0:	f41c                	sd	a5,40(s0)
    800005b2:	03043823          	sd	a6,48(s0)
    800005b6:	03143c23          	sd	a7,56(s0)
    800005ba:	00010d97          	auipc	s11,0x10
    800005be:	546dad83          	lw	s11,1350(s11) # 80010b00 <pr+0x18>
    800005c2:	020d9b63          	bnez	s11,800005f8 <printf+0x70>
    800005c6:	040a0263          	beqz	s4,8000060a <printf+0x82>
    800005ca:	00840793          	addi	a5,s0,8
    800005ce:	f8f43423          	sd	a5,-120(s0)
    800005d2:	000a4503          	lbu	a0,0(s4)
    800005d6:	14050f63          	beqz	a0,80000734 <printf+0x1ac>
    800005da:	4981                	li	s3,0
    800005dc:	02500a93          	li	s5,37
    800005e0:	07000b93          	li	s7,112
    800005e4:	4d41                	li	s10,16
    800005e6:	00008b17          	auipc	s6,0x8
    800005ea:	a5ab0b13          	addi	s6,s6,-1446 # 80008040 <digits>
    800005ee:	07300c93          	li	s9,115
    800005f2:	06400c13          	li	s8,100
    800005f6:	a82d                	j	80000630 <printf+0xa8>
    800005f8:	00010517          	auipc	a0,0x10
    800005fc:	4f050513          	addi	a0,a0,1264 # 80010ae8 <pr>
    80000600:	00000097          	auipc	ra,0x0
    80000604:	5d6080e7          	jalr	1494(ra) # 80000bd6 <acquire>
    80000608:	bf7d                	j	800005c6 <printf+0x3e>
    8000060a:	00008517          	auipc	a0,0x8
    8000060e:	a1e50513          	addi	a0,a0,-1506 # 80008028 <etext+0x28>
    80000612:	00000097          	auipc	ra,0x0
    80000616:	f2c080e7          	jalr	-212(ra) # 8000053e <panic>
    8000061a:	00000097          	auipc	ra,0x0
    8000061e:	c62080e7          	jalr	-926(ra) # 8000027c <consputc>
    80000622:	2985                	addiw	s3,s3,1
    80000624:	013a07b3          	add	a5,s4,s3
    80000628:	0007c503          	lbu	a0,0(a5)
    8000062c:	10050463          	beqz	a0,80000734 <printf+0x1ac>
    80000630:	ff5515e3          	bne	a0,s5,8000061a <printf+0x92>
    80000634:	2985                	addiw	s3,s3,1
    80000636:	013a07b3          	add	a5,s4,s3
    8000063a:	0007c783          	lbu	a5,0(a5)
    8000063e:	0007849b          	sext.w	s1,a5
    80000642:	cbed                	beqz	a5,80000734 <printf+0x1ac>
    80000644:	05778a63          	beq	a5,s7,80000698 <printf+0x110>
    80000648:	02fbf663          	bgeu	s7,a5,80000674 <printf+0xec>
    8000064c:	09978863          	beq	a5,s9,800006dc <printf+0x154>
    80000650:	07800713          	li	a4,120
    80000654:	0ce79563          	bne	a5,a4,8000071e <printf+0x196>
    80000658:	f8843783          	ld	a5,-120(s0)
    8000065c:	00878713          	addi	a4,a5,8
    80000660:	f8e43423          	sd	a4,-120(s0)
    80000664:	4605                	li	a2,1
    80000666:	85ea                	mv	a1,s10
    80000668:	4388                	lw	a0,0(a5)
    8000066a:	00000097          	auipc	ra,0x0
    8000066e:	e32080e7          	jalr	-462(ra) # 8000049c <printint>
    80000672:	bf45                	j	80000622 <printf+0x9a>
    80000674:	09578f63          	beq	a5,s5,80000712 <printf+0x18a>
    80000678:	0b879363          	bne	a5,s8,8000071e <printf+0x196>
    8000067c:	f8843783          	ld	a5,-120(s0)
    80000680:	00878713          	addi	a4,a5,8
    80000684:	f8e43423          	sd	a4,-120(s0)
    80000688:	4605                	li	a2,1
    8000068a:	45a9                	li	a1,10
    8000068c:	4388                	lw	a0,0(a5)
    8000068e:	00000097          	auipc	ra,0x0
    80000692:	e0e080e7          	jalr	-498(ra) # 8000049c <printint>
    80000696:	b771                	j	80000622 <printf+0x9a>
    80000698:	f8843783          	ld	a5,-120(s0)
    8000069c:	00878713          	addi	a4,a5,8
    800006a0:	f8e43423          	sd	a4,-120(s0)
    800006a4:	0007b903          	ld	s2,0(a5)
    800006a8:	03000513          	li	a0,48
    800006ac:	00000097          	auipc	ra,0x0
    800006b0:	bd0080e7          	jalr	-1072(ra) # 8000027c <consputc>
    800006b4:	07800513          	li	a0,120
    800006b8:	00000097          	auipc	ra,0x0
    800006bc:	bc4080e7          	jalr	-1084(ra) # 8000027c <consputc>
    800006c0:	84ea                	mv	s1,s10
    800006c2:	03c95793          	srli	a5,s2,0x3c
    800006c6:	97da                	add	a5,a5,s6
    800006c8:	0007c503          	lbu	a0,0(a5)
    800006cc:	00000097          	auipc	ra,0x0
    800006d0:	bb0080e7          	jalr	-1104(ra) # 8000027c <consputc>
    800006d4:	0912                	slli	s2,s2,0x4
    800006d6:	34fd                	addiw	s1,s1,-1
    800006d8:	f4ed                	bnez	s1,800006c2 <printf+0x13a>
    800006da:	b7a1                	j	80000622 <printf+0x9a>
    800006dc:	f8843783          	ld	a5,-120(s0)
    800006e0:	00878713          	addi	a4,a5,8
    800006e4:	f8e43423          	sd	a4,-120(s0)
    800006e8:	6384                	ld	s1,0(a5)
    800006ea:	cc89                	beqz	s1,80000704 <printf+0x17c>
    800006ec:	0004c503          	lbu	a0,0(s1)
    800006f0:	d90d                	beqz	a0,80000622 <printf+0x9a>
    800006f2:	00000097          	auipc	ra,0x0
    800006f6:	b8a080e7          	jalr	-1142(ra) # 8000027c <consputc>
    800006fa:	0485                	addi	s1,s1,1
    800006fc:	0004c503          	lbu	a0,0(s1)
    80000700:	f96d                	bnez	a0,800006f2 <printf+0x16a>
    80000702:	b705                	j	80000622 <printf+0x9a>
    80000704:	00008497          	auipc	s1,0x8
    80000708:	91c48493          	addi	s1,s1,-1764 # 80008020 <etext+0x20>
    8000070c:	02800513          	li	a0,40
    80000710:	b7cd                	j	800006f2 <printf+0x16a>
    80000712:	8556                	mv	a0,s5
    80000714:	00000097          	auipc	ra,0x0
    80000718:	b68080e7          	jalr	-1176(ra) # 8000027c <consputc>
    8000071c:	b719                	j	80000622 <printf+0x9a>
    8000071e:	8556                	mv	a0,s5
    80000720:	00000097          	auipc	ra,0x0
    80000724:	b5c080e7          	jalr	-1188(ra) # 8000027c <consputc>
    80000728:	8526                	mv	a0,s1
    8000072a:	00000097          	auipc	ra,0x0
    8000072e:	b52080e7          	jalr	-1198(ra) # 8000027c <consputc>
    80000732:	bdc5                	j	80000622 <printf+0x9a>
    80000734:	020d9163          	bnez	s11,80000756 <printf+0x1ce>
    80000738:	70e6                	ld	ra,120(sp)
    8000073a:	7446                	ld	s0,112(sp)
    8000073c:	74a6                	ld	s1,104(sp)
    8000073e:	7906                	ld	s2,96(sp)
    80000740:	69e6                	ld	s3,88(sp)
    80000742:	6a46                	ld	s4,80(sp)
    80000744:	6aa6                	ld	s5,72(sp)
    80000746:	6b06                	ld	s6,64(sp)
    80000748:	7be2                	ld	s7,56(sp)
    8000074a:	7c42                	ld	s8,48(sp)
    8000074c:	7ca2                	ld	s9,40(sp)
    8000074e:	7d02                	ld	s10,32(sp)
    80000750:	6de2                	ld	s11,24(sp)
    80000752:	6129                	addi	sp,sp,192
    80000754:	8082                	ret
    80000756:	00010517          	auipc	a0,0x10
    8000075a:	39250513          	addi	a0,a0,914 # 80010ae8 <pr>
    8000075e:	00000097          	auipc	ra,0x0
    80000762:	52c080e7          	jalr	1324(ra) # 80000c8a <release>
    80000766:	bfc9                	j	80000738 <printf+0x1b0>

0000000080000768 <printfinit>:
    80000768:	1101                	addi	sp,sp,-32
    8000076a:	ec06                	sd	ra,24(sp)
    8000076c:	e822                	sd	s0,16(sp)
    8000076e:	e426                	sd	s1,8(sp)
    80000770:	1000                	addi	s0,sp,32
    80000772:	00010497          	auipc	s1,0x10
    80000776:	37648493          	addi	s1,s1,886 # 80010ae8 <pr>
    8000077a:	00008597          	auipc	a1,0x8
    8000077e:	8be58593          	addi	a1,a1,-1858 # 80008038 <etext+0x38>
    80000782:	8526                	mv	a0,s1
    80000784:	00000097          	auipc	ra,0x0
    80000788:	3c2080e7          	jalr	962(ra) # 80000b46 <initlock>
    8000078c:	4785                	li	a5,1
    8000078e:	cc9c                	sw	a5,24(s1)
    80000790:	60e2                	ld	ra,24(sp)
    80000792:	6442                	ld	s0,16(sp)
    80000794:	64a2                	ld	s1,8(sp)
    80000796:	6105                	addi	sp,sp,32
    80000798:	8082                	ret

000000008000079a <uartinit>:
    8000079a:	1141                	addi	sp,sp,-16
    8000079c:	e406                	sd	ra,8(sp)
    8000079e:	e022                	sd	s0,0(sp)
    800007a0:	0800                	addi	s0,sp,16
    800007a2:	100007b7          	lui	a5,0x10000
    800007a6:	000780a3          	sb	zero,1(a5) # 10000001 <_entry-0x6fffffff>
    800007aa:	f8000713          	li	a4,-128
    800007ae:	00e781a3          	sb	a4,3(a5)
    800007b2:	470d                	li	a4,3
    800007b4:	00e78023          	sb	a4,0(a5)
    800007b8:	000780a3          	sb	zero,1(a5)
    800007bc:	00e781a3          	sb	a4,3(a5)
    800007c0:	469d                	li	a3,7
    800007c2:	00d78123          	sb	a3,2(a5)
    800007c6:	00e780a3          	sb	a4,1(a5)
    800007ca:	00008597          	auipc	a1,0x8
    800007ce:	88e58593          	addi	a1,a1,-1906 # 80008058 <digits+0x18>
    800007d2:	00010517          	auipc	a0,0x10
    800007d6:	33650513          	addi	a0,a0,822 # 80010b08 <uart_tx_lock>
    800007da:	00000097          	auipc	ra,0x0
    800007de:	36c080e7          	jalr	876(ra) # 80000b46 <initlock>
    800007e2:	60a2                	ld	ra,8(sp)
    800007e4:	6402                	ld	s0,0(sp)
    800007e6:	0141                	addi	sp,sp,16
    800007e8:	8082                	ret

00000000800007ea <uartputc_sync>:
    800007ea:	1101                	addi	sp,sp,-32
    800007ec:	ec06                	sd	ra,24(sp)
    800007ee:	e822                	sd	s0,16(sp)
    800007f0:	e426                	sd	s1,8(sp)
    800007f2:	1000                	addi	s0,sp,32
    800007f4:	84aa                	mv	s1,a0
    800007f6:	00000097          	auipc	ra,0x0
    800007fa:	394080e7          	jalr	916(ra) # 80000b8a <push_off>
    800007fe:	00008797          	auipc	a5,0x8
    80000802:	0c27a783          	lw	a5,194(a5) # 800088c0 <panicked>
    80000806:	10000737          	lui	a4,0x10000
    8000080a:	c391                	beqz	a5,8000080e <uartputc_sync+0x24>
    8000080c:	a001                	j	8000080c <uartputc_sync+0x22>
    8000080e:	00574783          	lbu	a5,5(a4) # 10000005 <_entry-0x6ffffffb>
    80000812:	0207f793          	andi	a5,a5,32
    80000816:	dfe5                	beqz	a5,8000080e <uartputc_sync+0x24>
    80000818:	0ff4f513          	andi	a0,s1,255
    8000081c:	100007b7          	lui	a5,0x10000
    80000820:	00a78023          	sb	a0,0(a5) # 10000000 <_entry-0x70000000>
    80000824:	00000097          	auipc	ra,0x0
    80000828:	406080e7          	jalr	1030(ra) # 80000c2a <pop_off>
    8000082c:	60e2                	ld	ra,24(sp)
    8000082e:	6442                	ld	s0,16(sp)
    80000830:	64a2                	ld	s1,8(sp)
    80000832:	6105                	addi	sp,sp,32
    80000834:	8082                	ret

0000000080000836 <uartstart>:
    80000836:	00008797          	auipc	a5,0x8
    8000083a:	0927b783          	ld	a5,146(a5) # 800088c8 <uart_tx_r>
    8000083e:	00008717          	auipc	a4,0x8
    80000842:	09273703          	ld	a4,146(a4) # 800088d0 <uart_tx_w>
    80000846:	06f70a63          	beq	a4,a5,800008ba <uartstart+0x84>
    8000084a:	7139                	addi	sp,sp,-64
    8000084c:	fc06                	sd	ra,56(sp)
    8000084e:	f822                	sd	s0,48(sp)
    80000850:	f426                	sd	s1,40(sp)
    80000852:	f04a                	sd	s2,32(sp)
    80000854:	ec4e                	sd	s3,24(sp)
    80000856:	e852                	sd	s4,16(sp)
    80000858:	e456                	sd	s5,8(sp)
    8000085a:	0080                	addi	s0,sp,64
    8000085c:	10000937          	lui	s2,0x10000
    80000860:	00010a17          	auipc	s4,0x10
    80000864:	2a8a0a13          	addi	s4,s4,680 # 80010b08 <uart_tx_lock>
    80000868:	00008497          	auipc	s1,0x8
    8000086c:	06048493          	addi	s1,s1,96 # 800088c8 <uart_tx_r>
    80000870:	00008997          	auipc	s3,0x8
    80000874:	06098993          	addi	s3,s3,96 # 800088d0 <uart_tx_w>
    80000878:	00594703          	lbu	a4,5(s2) # 10000005 <_entry-0x6ffffffb>
    8000087c:	02077713          	andi	a4,a4,32
    80000880:	c705                	beqz	a4,800008a8 <uartstart+0x72>
    80000882:	01f7f713          	andi	a4,a5,31
    80000886:	9752                	add	a4,a4,s4
    80000888:	01874a83          	lbu	s5,24(a4)
    8000088c:	0785                	addi	a5,a5,1
    8000088e:	e09c                	sd	a5,0(s1)
    80000890:	8526                	mv	a0,s1
    80000892:	00002097          	auipc	ra,0x2
    80000896:	8f0080e7          	jalr	-1808(ra) # 80002182 <wakeup>
    8000089a:	01590023          	sb	s5,0(s2)
    8000089e:	609c                	ld	a5,0(s1)
    800008a0:	0009b703          	ld	a4,0(s3)
    800008a4:	fcf71ae3          	bne	a4,a5,80000878 <uartstart+0x42>
    800008a8:	70e2                	ld	ra,56(sp)
    800008aa:	7442                	ld	s0,48(sp)
    800008ac:	74a2                	ld	s1,40(sp)
    800008ae:	7902                	ld	s2,32(sp)
    800008b0:	69e2                	ld	s3,24(sp)
    800008b2:	6a42                	ld	s4,16(sp)
    800008b4:	6aa2                	ld	s5,8(sp)
    800008b6:	6121                	addi	sp,sp,64
    800008b8:	8082                	ret
    800008ba:	8082                	ret

00000000800008bc <uartputc>:
    800008bc:	7179                	addi	sp,sp,-48
    800008be:	f406                	sd	ra,40(sp)
    800008c0:	f022                	sd	s0,32(sp)
    800008c2:	ec26                	sd	s1,24(sp)
    800008c4:	e84a                	sd	s2,16(sp)
    800008c6:	e44e                	sd	s3,8(sp)
    800008c8:	e052                	sd	s4,0(sp)
    800008ca:	1800                	addi	s0,sp,48
    800008cc:	8a2a                	mv	s4,a0
    800008ce:	00010517          	auipc	a0,0x10
    800008d2:	23a50513          	addi	a0,a0,570 # 80010b08 <uart_tx_lock>
    800008d6:	00000097          	auipc	ra,0x0
    800008da:	300080e7          	jalr	768(ra) # 80000bd6 <acquire>
    800008de:	00008797          	auipc	a5,0x8
    800008e2:	fe27a783          	lw	a5,-30(a5) # 800088c0 <panicked>
    800008e6:	e7c9                	bnez	a5,80000970 <uartputc+0xb4>
    800008e8:	00008717          	auipc	a4,0x8
    800008ec:	fe873703          	ld	a4,-24(a4) # 800088d0 <uart_tx_w>
    800008f0:	00008797          	auipc	a5,0x8
    800008f4:	fd87b783          	ld	a5,-40(a5) # 800088c8 <uart_tx_r>
    800008f8:	02078793          	addi	a5,a5,32
    800008fc:	00010997          	auipc	s3,0x10
    80000900:	20c98993          	addi	s3,s3,524 # 80010b08 <uart_tx_lock>
    80000904:	00008497          	auipc	s1,0x8
    80000908:	fc448493          	addi	s1,s1,-60 # 800088c8 <uart_tx_r>
    8000090c:	00008917          	auipc	s2,0x8
    80000910:	fc490913          	addi	s2,s2,-60 # 800088d0 <uart_tx_w>
    80000914:	00e79f63          	bne	a5,a4,80000932 <uartputc+0x76>
    80000918:	85ce                	mv	a1,s3
    8000091a:	8526                	mv	a0,s1
    8000091c:	00002097          	auipc	ra,0x2
    80000920:	802080e7          	jalr	-2046(ra) # 8000211e <sleep>
    80000924:	00093703          	ld	a4,0(s2)
    80000928:	609c                	ld	a5,0(s1)
    8000092a:	02078793          	addi	a5,a5,32
    8000092e:	fee785e3          	beq	a5,a4,80000918 <uartputc+0x5c>
    80000932:	00010497          	auipc	s1,0x10
    80000936:	1d648493          	addi	s1,s1,470 # 80010b08 <uart_tx_lock>
    8000093a:	01f77793          	andi	a5,a4,31
    8000093e:	97a6                	add	a5,a5,s1
    80000940:	01478c23          	sb	s4,24(a5)
    80000944:	0705                	addi	a4,a4,1
    80000946:	00008797          	auipc	a5,0x8
    8000094a:	f8e7b523          	sd	a4,-118(a5) # 800088d0 <uart_tx_w>
    8000094e:	00000097          	auipc	ra,0x0
    80000952:	ee8080e7          	jalr	-280(ra) # 80000836 <uartstart>
    80000956:	8526                	mv	a0,s1
    80000958:	00000097          	auipc	ra,0x0
    8000095c:	332080e7          	jalr	818(ra) # 80000c8a <release>
    80000960:	70a2                	ld	ra,40(sp)
    80000962:	7402                	ld	s0,32(sp)
    80000964:	64e2                	ld	s1,24(sp)
    80000966:	6942                	ld	s2,16(sp)
    80000968:	69a2                	ld	s3,8(sp)
    8000096a:	6a02                	ld	s4,0(sp)
    8000096c:	6145                	addi	sp,sp,48
    8000096e:	8082                	ret
    80000970:	a001                	j	80000970 <uartputc+0xb4>

0000000080000972 <uartgetc>:
    80000972:	1141                	addi	sp,sp,-16
    80000974:	e422                	sd	s0,8(sp)
    80000976:	0800                	addi	s0,sp,16
    80000978:	100007b7          	lui	a5,0x10000
    8000097c:	0057c783          	lbu	a5,5(a5) # 10000005 <_entry-0x6ffffffb>
    80000980:	8b85                	andi	a5,a5,1
    80000982:	cb91                	beqz	a5,80000996 <uartgetc+0x24>
    80000984:	100007b7          	lui	a5,0x10000
    80000988:	0007c503          	lbu	a0,0(a5) # 10000000 <_entry-0x70000000>
    8000098c:	0ff57513          	andi	a0,a0,255
    80000990:	6422                	ld	s0,8(sp)
    80000992:	0141                	addi	sp,sp,16
    80000994:	8082                	ret
    80000996:	557d                	li	a0,-1
    80000998:	bfe5                	j	80000990 <uartgetc+0x1e>

000000008000099a <uartintr>:
    8000099a:	1101                	addi	sp,sp,-32
    8000099c:	ec06                	sd	ra,24(sp)
    8000099e:	e822                	sd	s0,16(sp)
    800009a0:	e426                	sd	s1,8(sp)
    800009a2:	1000                	addi	s0,sp,32
    800009a4:	54fd                	li	s1,-1
    800009a6:	a029                	j	800009b0 <uartintr+0x16>
    800009a8:	00000097          	auipc	ra,0x0
    800009ac:	916080e7          	jalr	-1770(ra) # 800002be <consoleintr>
    800009b0:	00000097          	auipc	ra,0x0
    800009b4:	fc2080e7          	jalr	-62(ra) # 80000972 <uartgetc>
    800009b8:	fe9518e3          	bne	a0,s1,800009a8 <uartintr+0xe>
    800009bc:	00010497          	auipc	s1,0x10
    800009c0:	14c48493          	addi	s1,s1,332 # 80010b08 <uart_tx_lock>
    800009c4:	8526                	mv	a0,s1
    800009c6:	00000097          	auipc	ra,0x0
    800009ca:	210080e7          	jalr	528(ra) # 80000bd6 <acquire>
    800009ce:	00000097          	auipc	ra,0x0
    800009d2:	e68080e7          	jalr	-408(ra) # 80000836 <uartstart>
    800009d6:	8526                	mv	a0,s1
    800009d8:	00000097          	auipc	ra,0x0
    800009dc:	2b2080e7          	jalr	690(ra) # 80000c8a <release>
    800009e0:	60e2                	ld	ra,24(sp)
    800009e2:	6442                	ld	s0,16(sp)
    800009e4:	64a2                	ld	s1,8(sp)
    800009e6:	6105                	addi	sp,sp,32
    800009e8:	8082                	ret

00000000800009ea <kfree>:
    800009ea:	1101                	addi	sp,sp,-32
    800009ec:	ec06                	sd	ra,24(sp)
    800009ee:	e822                	sd	s0,16(sp)
    800009f0:	e426                	sd	s1,8(sp)
    800009f2:	e04a                	sd	s2,0(sp)
    800009f4:	1000                	addi	s0,sp,32
    800009f6:	03451793          	slli	a5,a0,0x34
    800009fa:	ebb9                	bnez	a5,80000a50 <kfree+0x66>
    800009fc:	84aa                	mv	s1,a0
    800009fe:	00022797          	auipc	a5,0x22
    80000a02:	77278793          	addi	a5,a5,1906 # 80023170 <end>
    80000a06:	04f56563          	bltu	a0,a5,80000a50 <kfree+0x66>
    80000a0a:	47c5                	li	a5,17
    80000a0c:	07ee                	slli	a5,a5,0x1b
    80000a0e:	04f57163          	bgeu	a0,a5,80000a50 <kfree+0x66>
    80000a12:	6605                	lui	a2,0x1
    80000a14:	4585                	li	a1,1
    80000a16:	00000097          	auipc	ra,0x0
    80000a1a:	2bc080e7          	jalr	700(ra) # 80000cd2 <memset>
    80000a1e:	00010917          	auipc	s2,0x10
    80000a22:	12290913          	addi	s2,s2,290 # 80010b40 <kmem>
    80000a26:	854a                	mv	a0,s2
    80000a28:	00000097          	auipc	ra,0x0
    80000a2c:	1ae080e7          	jalr	430(ra) # 80000bd6 <acquire>
    80000a30:	01893783          	ld	a5,24(s2)
    80000a34:	e09c                	sd	a5,0(s1)
    80000a36:	00993c23          	sd	s1,24(s2)
    80000a3a:	854a                	mv	a0,s2
    80000a3c:	00000097          	auipc	ra,0x0
    80000a40:	24e080e7          	jalr	590(ra) # 80000c8a <release>
    80000a44:	60e2                	ld	ra,24(sp)
    80000a46:	6442                	ld	s0,16(sp)
    80000a48:	64a2                	ld	s1,8(sp)
    80000a4a:	6902                	ld	s2,0(sp)
    80000a4c:	6105                	addi	sp,sp,32
    80000a4e:	8082                	ret
    80000a50:	00007517          	auipc	a0,0x7
    80000a54:	61050513          	addi	a0,a0,1552 # 80008060 <digits+0x20>
    80000a58:	00000097          	auipc	ra,0x0
    80000a5c:	ae6080e7          	jalr	-1306(ra) # 8000053e <panic>

0000000080000a60 <freerange>:
    80000a60:	7179                	addi	sp,sp,-48
    80000a62:	f406                	sd	ra,40(sp)
    80000a64:	f022                	sd	s0,32(sp)
    80000a66:	ec26                	sd	s1,24(sp)
    80000a68:	e84a                	sd	s2,16(sp)
    80000a6a:	e44e                	sd	s3,8(sp)
    80000a6c:	e052                	sd	s4,0(sp)
    80000a6e:	1800                	addi	s0,sp,48
    80000a70:	6785                	lui	a5,0x1
    80000a72:	fff78493          	addi	s1,a5,-1 # fff <_entry-0x7ffff001>
    80000a76:	94aa                	add	s1,s1,a0
    80000a78:	757d                	lui	a0,0xfffff
    80000a7a:	8ce9                	and	s1,s1,a0
    80000a7c:	94be                	add	s1,s1,a5
    80000a7e:	0095ee63          	bltu	a1,s1,80000a9a <freerange+0x3a>
    80000a82:	892e                	mv	s2,a1
    80000a84:	7a7d                	lui	s4,0xfffff
    80000a86:	6985                	lui	s3,0x1
    80000a88:	01448533          	add	a0,s1,s4
    80000a8c:	00000097          	auipc	ra,0x0
    80000a90:	f5e080e7          	jalr	-162(ra) # 800009ea <kfree>
    80000a94:	94ce                	add	s1,s1,s3
    80000a96:	fe9979e3          	bgeu	s2,s1,80000a88 <freerange+0x28>
    80000a9a:	70a2                	ld	ra,40(sp)
    80000a9c:	7402                	ld	s0,32(sp)
    80000a9e:	64e2                	ld	s1,24(sp)
    80000aa0:	6942                	ld	s2,16(sp)
    80000aa2:	69a2                	ld	s3,8(sp)
    80000aa4:	6a02                	ld	s4,0(sp)
    80000aa6:	6145                	addi	sp,sp,48
    80000aa8:	8082                	ret

0000000080000aaa <kinit>:
    80000aaa:	1141                	addi	sp,sp,-16
    80000aac:	e406                	sd	ra,8(sp)
    80000aae:	e022                	sd	s0,0(sp)
    80000ab0:	0800                	addi	s0,sp,16
    80000ab2:	00007597          	auipc	a1,0x7
    80000ab6:	5b658593          	addi	a1,a1,1462 # 80008068 <digits+0x28>
    80000aba:	00010517          	auipc	a0,0x10
    80000abe:	08650513          	addi	a0,a0,134 # 80010b40 <kmem>
    80000ac2:	00000097          	auipc	ra,0x0
    80000ac6:	084080e7          	jalr	132(ra) # 80000b46 <initlock>
    80000aca:	45c5                	li	a1,17
    80000acc:	05ee                	slli	a1,a1,0x1b
    80000ace:	00022517          	auipc	a0,0x22
    80000ad2:	6a250513          	addi	a0,a0,1698 # 80023170 <end>
    80000ad6:	00000097          	auipc	ra,0x0
    80000ada:	f8a080e7          	jalr	-118(ra) # 80000a60 <freerange>
    80000ade:	60a2                	ld	ra,8(sp)
    80000ae0:	6402                	ld	s0,0(sp)
    80000ae2:	0141                	addi	sp,sp,16
    80000ae4:	8082                	ret

0000000080000ae6 <kalloc>:
    80000ae6:	1101                	addi	sp,sp,-32
    80000ae8:	ec06                	sd	ra,24(sp)
    80000aea:	e822                	sd	s0,16(sp)
    80000aec:	e426                	sd	s1,8(sp)
    80000aee:	1000                	addi	s0,sp,32
    80000af0:	00010497          	auipc	s1,0x10
    80000af4:	05048493          	addi	s1,s1,80 # 80010b40 <kmem>
    80000af8:	8526                	mv	a0,s1
    80000afa:	00000097          	auipc	ra,0x0
    80000afe:	0dc080e7          	jalr	220(ra) # 80000bd6 <acquire>
    80000b02:	6c84                	ld	s1,24(s1)
    80000b04:	c885                	beqz	s1,80000b34 <kalloc+0x4e>
    80000b06:	609c                	ld	a5,0(s1)
    80000b08:	00010517          	auipc	a0,0x10
    80000b0c:	03850513          	addi	a0,a0,56 # 80010b40 <kmem>
    80000b10:	ed1c                	sd	a5,24(a0)
    80000b12:	00000097          	auipc	ra,0x0
    80000b16:	178080e7          	jalr	376(ra) # 80000c8a <release>
    80000b1a:	6605                	lui	a2,0x1
    80000b1c:	4595                	li	a1,5
    80000b1e:	8526                	mv	a0,s1
    80000b20:	00000097          	auipc	ra,0x0
    80000b24:	1b2080e7          	jalr	434(ra) # 80000cd2 <memset>
    80000b28:	8526                	mv	a0,s1
    80000b2a:	60e2                	ld	ra,24(sp)
    80000b2c:	6442                	ld	s0,16(sp)
    80000b2e:	64a2                	ld	s1,8(sp)
    80000b30:	6105                	addi	sp,sp,32
    80000b32:	8082                	ret
    80000b34:	00010517          	auipc	a0,0x10
    80000b38:	00c50513          	addi	a0,a0,12 # 80010b40 <kmem>
    80000b3c:	00000097          	auipc	ra,0x0
    80000b40:	14e080e7          	jalr	334(ra) # 80000c8a <release>
    80000b44:	b7d5                	j	80000b28 <kalloc+0x42>

0000000080000b46 <initlock>:
    80000b46:	1141                	addi	sp,sp,-16
    80000b48:	e422                	sd	s0,8(sp)
    80000b4a:	0800                	addi	s0,sp,16
    80000b4c:	e50c                	sd	a1,8(a0)
    80000b4e:	00052023          	sw	zero,0(a0)
    80000b52:	00053823          	sd	zero,16(a0)
    80000b56:	6422                	ld	s0,8(sp)
    80000b58:	0141                	addi	sp,sp,16
    80000b5a:	8082                	ret

0000000080000b5c <holding>:
    80000b5c:	411c                	lw	a5,0(a0)
    80000b5e:	e399                	bnez	a5,80000b64 <holding+0x8>
    80000b60:	4501                	li	a0,0
    80000b62:	8082                	ret
    80000b64:	1101                	addi	sp,sp,-32
    80000b66:	ec06                	sd	ra,24(sp)
    80000b68:	e822                	sd	s0,16(sp)
    80000b6a:	e426                	sd	s1,8(sp)
    80000b6c:	1000                	addi	s0,sp,32
    80000b6e:	6904                	ld	s1,16(a0)
    80000b70:	00001097          	auipc	ra,0x1
    80000b74:	e20080e7          	jalr	-480(ra) # 80001990 <mycpu>
    80000b78:	40a48533          	sub	a0,s1,a0
    80000b7c:	00153513          	seqz	a0,a0
    80000b80:	60e2                	ld	ra,24(sp)
    80000b82:	6442                	ld	s0,16(sp)
    80000b84:	64a2                	ld	s1,8(sp)
    80000b86:	6105                	addi	sp,sp,32
    80000b88:	8082                	ret

0000000080000b8a <push_off>:
    80000b8a:	1101                	addi	sp,sp,-32
    80000b8c:	ec06                	sd	ra,24(sp)
    80000b8e:	e822                	sd	s0,16(sp)
    80000b90:	e426                	sd	s1,8(sp)
    80000b92:	1000                	addi	s0,sp,32
    80000b94:	100024f3          	csrr	s1,sstatus
    80000b98:	100027f3          	csrr	a5,sstatus
    80000b9c:	9bf5                	andi	a5,a5,-3
    80000b9e:	10079073          	csrw	sstatus,a5
    80000ba2:	00001097          	auipc	ra,0x1
    80000ba6:	dee080e7          	jalr	-530(ra) # 80001990 <mycpu>
    80000baa:	5d3c                	lw	a5,120(a0)
    80000bac:	cf89                	beqz	a5,80000bc6 <push_off+0x3c>
    80000bae:	00001097          	auipc	ra,0x1
    80000bb2:	de2080e7          	jalr	-542(ra) # 80001990 <mycpu>
    80000bb6:	5d3c                	lw	a5,120(a0)
    80000bb8:	2785                	addiw	a5,a5,1
    80000bba:	dd3c                	sw	a5,120(a0)
    80000bbc:	60e2                	ld	ra,24(sp)
    80000bbe:	6442                	ld	s0,16(sp)
    80000bc0:	64a2                	ld	s1,8(sp)
    80000bc2:	6105                	addi	sp,sp,32
    80000bc4:	8082                	ret
    80000bc6:	00001097          	auipc	ra,0x1
    80000bca:	dca080e7          	jalr	-566(ra) # 80001990 <mycpu>
    80000bce:	8085                	srli	s1,s1,0x1
    80000bd0:	8885                	andi	s1,s1,1
    80000bd2:	dd64                	sw	s1,124(a0)
    80000bd4:	bfe9                	j	80000bae <push_off+0x24>

0000000080000bd6 <acquire>:
    80000bd6:	1101                	addi	sp,sp,-32
    80000bd8:	ec06                	sd	ra,24(sp)
    80000bda:	e822                	sd	s0,16(sp)
    80000bdc:	e426                	sd	s1,8(sp)
    80000bde:	1000                	addi	s0,sp,32
    80000be0:	84aa                	mv	s1,a0
    80000be2:	00000097          	auipc	ra,0x0
    80000be6:	fa8080e7          	jalr	-88(ra) # 80000b8a <push_off>
    80000bea:	8526                	mv	a0,s1
    80000bec:	00000097          	auipc	ra,0x0
    80000bf0:	f70080e7          	jalr	-144(ra) # 80000b5c <holding>
    80000bf4:	4705                	li	a4,1
    80000bf6:	e115                	bnez	a0,80000c1a <acquire+0x44>
    80000bf8:	87ba                	mv	a5,a4
    80000bfa:	0cf4a7af          	amoswap.w.aq	a5,a5,(s1)
    80000bfe:	2781                	sext.w	a5,a5
    80000c00:	ffe5                	bnez	a5,80000bf8 <acquire+0x22>
    80000c02:	0ff0000f          	fence
    80000c06:	00001097          	auipc	ra,0x1
    80000c0a:	d8a080e7          	jalr	-630(ra) # 80001990 <mycpu>
    80000c0e:	e888                	sd	a0,16(s1)
    80000c10:	60e2                	ld	ra,24(sp)
    80000c12:	6442                	ld	s0,16(sp)
    80000c14:	64a2                	ld	s1,8(sp)
    80000c16:	6105                	addi	sp,sp,32
    80000c18:	8082                	ret
    80000c1a:	00007517          	auipc	a0,0x7
    80000c1e:	45650513          	addi	a0,a0,1110 # 80008070 <digits+0x30>
    80000c22:	00000097          	auipc	ra,0x0
    80000c26:	91c080e7          	jalr	-1764(ra) # 8000053e <panic>

0000000080000c2a <pop_off>:
    80000c2a:	1141                	addi	sp,sp,-16
    80000c2c:	e406                	sd	ra,8(sp)
    80000c2e:	e022                	sd	s0,0(sp)
    80000c30:	0800                	addi	s0,sp,16
    80000c32:	00001097          	auipc	ra,0x1
    80000c36:	d5e080e7          	jalr	-674(ra) # 80001990 <mycpu>
    80000c3a:	100027f3          	csrr	a5,sstatus
    80000c3e:	8b89                	andi	a5,a5,2
    80000c40:	e78d                	bnez	a5,80000c6a <pop_off+0x40>
    80000c42:	5d3c                	lw	a5,120(a0)
    80000c44:	02f05b63          	blez	a5,80000c7a <pop_off+0x50>
    80000c48:	37fd                	addiw	a5,a5,-1
    80000c4a:	0007871b          	sext.w	a4,a5
    80000c4e:	dd3c                	sw	a5,120(a0)
    80000c50:	eb09                	bnez	a4,80000c62 <pop_off+0x38>
    80000c52:	5d7c                	lw	a5,124(a0)
    80000c54:	c799                	beqz	a5,80000c62 <pop_off+0x38>
    80000c56:	100027f3          	csrr	a5,sstatus
    80000c5a:	0027e793          	ori	a5,a5,2
    80000c5e:	10079073          	csrw	sstatus,a5
    80000c62:	60a2                	ld	ra,8(sp)
    80000c64:	6402                	ld	s0,0(sp)
    80000c66:	0141                	addi	sp,sp,16
    80000c68:	8082                	ret
    80000c6a:	00007517          	auipc	a0,0x7
    80000c6e:	40e50513          	addi	a0,a0,1038 # 80008078 <digits+0x38>
    80000c72:	00000097          	auipc	ra,0x0
    80000c76:	8cc080e7          	jalr	-1844(ra) # 8000053e <panic>
    80000c7a:	00007517          	auipc	a0,0x7
    80000c7e:	41650513          	addi	a0,a0,1046 # 80008090 <digits+0x50>
    80000c82:	00000097          	auipc	ra,0x0
    80000c86:	8bc080e7          	jalr	-1860(ra) # 8000053e <panic>

0000000080000c8a <release>:
    80000c8a:	1101                	addi	sp,sp,-32
    80000c8c:	ec06                	sd	ra,24(sp)
    80000c8e:	e822                	sd	s0,16(sp)
    80000c90:	e426                	sd	s1,8(sp)
    80000c92:	1000                	addi	s0,sp,32
    80000c94:	84aa                	mv	s1,a0
    80000c96:	00000097          	auipc	ra,0x0
    80000c9a:	ec6080e7          	jalr	-314(ra) # 80000b5c <holding>
    80000c9e:	c115                	beqz	a0,80000cc2 <release+0x38>
    80000ca0:	0004b823          	sd	zero,16(s1)
    80000ca4:	0ff0000f          	fence
    80000ca8:	0f50000f          	fence	iorw,ow
    80000cac:	0804a02f          	amoswap.w	zero,zero,(s1)
    80000cb0:	00000097          	auipc	ra,0x0
    80000cb4:	f7a080e7          	jalr	-134(ra) # 80000c2a <pop_off>
    80000cb8:	60e2                	ld	ra,24(sp)
    80000cba:	6442                	ld	s0,16(sp)
    80000cbc:	64a2                	ld	s1,8(sp)
    80000cbe:	6105                	addi	sp,sp,32
    80000cc0:	8082                	ret
    80000cc2:	00007517          	auipc	a0,0x7
    80000cc6:	3d650513          	addi	a0,a0,982 # 80008098 <digits+0x58>
    80000cca:	00000097          	auipc	ra,0x0
    80000cce:	874080e7          	jalr	-1932(ra) # 8000053e <panic>

0000000080000cd2 <memset>:
    80000cd2:	1141                	addi	sp,sp,-16
    80000cd4:	e422                	sd	s0,8(sp)
    80000cd6:	0800                	addi	s0,sp,16
    80000cd8:	ca19                	beqz	a2,80000cee <memset+0x1c>
    80000cda:	87aa                	mv	a5,a0
    80000cdc:	1602                	slli	a2,a2,0x20
    80000cde:	9201                	srli	a2,a2,0x20
    80000ce0:	00a60733          	add	a4,a2,a0
    80000ce4:	00b78023          	sb	a1,0(a5)
    80000ce8:	0785                	addi	a5,a5,1
    80000cea:	fee79de3          	bne	a5,a4,80000ce4 <memset+0x12>
    80000cee:	6422                	ld	s0,8(sp)
    80000cf0:	0141                	addi	sp,sp,16
    80000cf2:	8082                	ret

0000000080000cf4 <memcmp>:
    80000cf4:	1141                	addi	sp,sp,-16
    80000cf6:	e422                	sd	s0,8(sp)
    80000cf8:	0800                	addi	s0,sp,16
    80000cfa:	ca05                	beqz	a2,80000d2a <memcmp+0x36>
    80000cfc:	fff6069b          	addiw	a3,a2,-1
    80000d00:	1682                	slli	a3,a3,0x20
    80000d02:	9281                	srli	a3,a3,0x20
    80000d04:	0685                	addi	a3,a3,1
    80000d06:	96aa                	add	a3,a3,a0
    80000d08:	00054783          	lbu	a5,0(a0)
    80000d0c:	0005c703          	lbu	a4,0(a1)
    80000d10:	00e79863          	bne	a5,a4,80000d20 <memcmp+0x2c>
    80000d14:	0505                	addi	a0,a0,1
    80000d16:	0585                	addi	a1,a1,1
    80000d18:	fed518e3          	bne	a0,a3,80000d08 <memcmp+0x14>
    80000d1c:	4501                	li	a0,0
    80000d1e:	a019                	j	80000d24 <memcmp+0x30>
    80000d20:	40e7853b          	subw	a0,a5,a4
    80000d24:	6422                	ld	s0,8(sp)
    80000d26:	0141                	addi	sp,sp,16
    80000d28:	8082                	ret
    80000d2a:	4501                	li	a0,0
    80000d2c:	bfe5                	j	80000d24 <memcmp+0x30>

0000000080000d2e <memmove>:
    80000d2e:	1141                	addi	sp,sp,-16
    80000d30:	e422                	sd	s0,8(sp)
    80000d32:	0800                	addi	s0,sp,16
    80000d34:	c205                	beqz	a2,80000d54 <memmove+0x26>
    80000d36:	02a5e263          	bltu	a1,a0,80000d5a <memmove+0x2c>
    80000d3a:	1602                	slli	a2,a2,0x20
    80000d3c:	9201                	srli	a2,a2,0x20
    80000d3e:	00c587b3          	add	a5,a1,a2
    80000d42:	872a                	mv	a4,a0
    80000d44:	0585                	addi	a1,a1,1
    80000d46:	0705                	addi	a4,a4,1
    80000d48:	fff5c683          	lbu	a3,-1(a1)
    80000d4c:	fed70fa3          	sb	a3,-1(a4)
    80000d50:	fef59ae3          	bne	a1,a5,80000d44 <memmove+0x16>
    80000d54:	6422                	ld	s0,8(sp)
    80000d56:	0141                	addi	sp,sp,16
    80000d58:	8082                	ret
    80000d5a:	02061693          	slli	a3,a2,0x20
    80000d5e:	9281                	srli	a3,a3,0x20
    80000d60:	00d58733          	add	a4,a1,a3
    80000d64:	fce57be3          	bgeu	a0,a4,80000d3a <memmove+0xc>
    80000d68:	96aa                	add	a3,a3,a0
    80000d6a:	fff6079b          	addiw	a5,a2,-1
    80000d6e:	1782                	slli	a5,a5,0x20
    80000d70:	9381                	srli	a5,a5,0x20
    80000d72:	fff7c793          	not	a5,a5
    80000d76:	97ba                	add	a5,a5,a4
    80000d78:	177d                	addi	a4,a4,-1
    80000d7a:	16fd                	addi	a3,a3,-1
    80000d7c:	00074603          	lbu	a2,0(a4)
    80000d80:	00c68023          	sb	a2,0(a3)
    80000d84:	fee79ae3          	bne	a5,a4,80000d78 <memmove+0x4a>
    80000d88:	b7f1                	j	80000d54 <memmove+0x26>

0000000080000d8a <memcpy>:
    80000d8a:	1141                	addi	sp,sp,-16
    80000d8c:	e406                	sd	ra,8(sp)
    80000d8e:	e022                	sd	s0,0(sp)
    80000d90:	0800                	addi	s0,sp,16
    80000d92:	00000097          	auipc	ra,0x0
    80000d96:	f9c080e7          	jalr	-100(ra) # 80000d2e <memmove>
    80000d9a:	60a2                	ld	ra,8(sp)
    80000d9c:	6402                	ld	s0,0(sp)
    80000d9e:	0141                	addi	sp,sp,16
    80000da0:	8082                	ret

0000000080000da2 <strncmp>:
    80000da2:	1141                	addi	sp,sp,-16
    80000da4:	e422                	sd	s0,8(sp)
    80000da6:	0800                	addi	s0,sp,16
    80000da8:	ce11                	beqz	a2,80000dc4 <strncmp+0x22>
    80000daa:	00054783          	lbu	a5,0(a0)
    80000dae:	cf89                	beqz	a5,80000dc8 <strncmp+0x26>
    80000db0:	0005c703          	lbu	a4,0(a1)
    80000db4:	00f71a63          	bne	a4,a5,80000dc8 <strncmp+0x26>
    80000db8:	367d                	addiw	a2,a2,-1
    80000dba:	0505                	addi	a0,a0,1
    80000dbc:	0585                	addi	a1,a1,1
    80000dbe:	f675                	bnez	a2,80000daa <strncmp+0x8>
    80000dc0:	4501                	li	a0,0
    80000dc2:	a809                	j	80000dd4 <strncmp+0x32>
    80000dc4:	4501                	li	a0,0
    80000dc6:	a039                	j	80000dd4 <strncmp+0x32>
    80000dc8:	ca09                	beqz	a2,80000dda <strncmp+0x38>
    80000dca:	00054503          	lbu	a0,0(a0)
    80000dce:	0005c783          	lbu	a5,0(a1)
    80000dd2:	9d1d                	subw	a0,a0,a5
    80000dd4:	6422                	ld	s0,8(sp)
    80000dd6:	0141                	addi	sp,sp,16
    80000dd8:	8082                	ret
    80000dda:	4501                	li	a0,0
    80000ddc:	bfe5                	j	80000dd4 <strncmp+0x32>

0000000080000dde <strncpy>:
    80000dde:	1141                	addi	sp,sp,-16
    80000de0:	e422                	sd	s0,8(sp)
    80000de2:	0800                	addi	s0,sp,16
    80000de4:	872a                	mv	a4,a0
    80000de6:	8832                	mv	a6,a2
    80000de8:	367d                	addiw	a2,a2,-1
    80000dea:	01005963          	blez	a6,80000dfc <strncpy+0x1e>
    80000dee:	0705                	addi	a4,a4,1
    80000df0:	0005c783          	lbu	a5,0(a1)
    80000df4:	fef70fa3          	sb	a5,-1(a4)
    80000df8:	0585                	addi	a1,a1,1
    80000dfa:	f7f5                	bnez	a5,80000de6 <strncpy+0x8>
    80000dfc:	86ba                	mv	a3,a4
    80000dfe:	00c05c63          	blez	a2,80000e16 <strncpy+0x38>
    80000e02:	0685                	addi	a3,a3,1
    80000e04:	fe068fa3          	sb	zero,-1(a3)
    80000e08:	fff6c793          	not	a5,a3
    80000e0c:	9fb9                	addw	a5,a5,a4
    80000e0e:	010787bb          	addw	a5,a5,a6
    80000e12:	fef048e3          	bgtz	a5,80000e02 <strncpy+0x24>
    80000e16:	6422                	ld	s0,8(sp)
    80000e18:	0141                	addi	sp,sp,16
    80000e1a:	8082                	ret

0000000080000e1c <safestrcpy>:
    80000e1c:	1141                	addi	sp,sp,-16
    80000e1e:	e422                	sd	s0,8(sp)
    80000e20:	0800                	addi	s0,sp,16
    80000e22:	02c05363          	blez	a2,80000e48 <safestrcpy+0x2c>
    80000e26:	fff6069b          	addiw	a3,a2,-1
    80000e2a:	1682                	slli	a3,a3,0x20
    80000e2c:	9281                	srli	a3,a3,0x20
    80000e2e:	96ae                	add	a3,a3,a1
    80000e30:	87aa                	mv	a5,a0
    80000e32:	00d58963          	beq	a1,a3,80000e44 <safestrcpy+0x28>
    80000e36:	0585                	addi	a1,a1,1
    80000e38:	0785                	addi	a5,a5,1
    80000e3a:	fff5c703          	lbu	a4,-1(a1)
    80000e3e:	fee78fa3          	sb	a4,-1(a5)
    80000e42:	fb65                	bnez	a4,80000e32 <safestrcpy+0x16>
    80000e44:	00078023          	sb	zero,0(a5)
    80000e48:	6422                	ld	s0,8(sp)
    80000e4a:	0141                	addi	sp,sp,16
    80000e4c:	8082                	ret

0000000080000e4e <strlen>:
    80000e4e:	1141                	addi	sp,sp,-16
    80000e50:	e422                	sd	s0,8(sp)
    80000e52:	0800                	addi	s0,sp,16
    80000e54:	00054783          	lbu	a5,0(a0)
    80000e58:	cf91                	beqz	a5,80000e74 <strlen+0x26>
    80000e5a:	0505                	addi	a0,a0,1
    80000e5c:	87aa                	mv	a5,a0
    80000e5e:	4685                	li	a3,1
    80000e60:	9e89                	subw	a3,a3,a0
    80000e62:	00f6853b          	addw	a0,a3,a5
    80000e66:	0785                	addi	a5,a5,1
    80000e68:	fff7c703          	lbu	a4,-1(a5)
    80000e6c:	fb7d                	bnez	a4,80000e62 <strlen+0x14>
    80000e6e:	6422                	ld	s0,8(sp)
    80000e70:	0141                	addi	sp,sp,16
    80000e72:	8082                	ret
    80000e74:	4501                	li	a0,0
    80000e76:	bfe5                	j	80000e6e <strlen+0x20>

0000000080000e78 <main>:
    80000e78:	1141                	addi	sp,sp,-16
    80000e7a:	e406                	sd	ra,8(sp)
    80000e7c:	e022                	sd	s0,0(sp)
    80000e7e:	0800                	addi	s0,sp,16
    80000e80:	00001097          	auipc	ra,0x1
    80000e84:	b00080e7          	jalr	-1280(ra) # 80001980 <cpuid>
    80000e88:	00008717          	auipc	a4,0x8
    80000e8c:	a5070713          	addi	a4,a4,-1456 # 800088d8 <started>
    80000e90:	c139                	beqz	a0,80000ed6 <main+0x5e>
    80000e92:	431c                	lw	a5,0(a4)
    80000e94:	2781                	sext.w	a5,a5
    80000e96:	dff5                	beqz	a5,80000e92 <main+0x1a>
    80000e98:	0ff0000f          	fence
    80000e9c:	00001097          	auipc	ra,0x1
    80000ea0:	ae4080e7          	jalr	-1308(ra) # 80001980 <cpuid>
    80000ea4:	85aa                	mv	a1,a0
    80000ea6:	00007517          	auipc	a0,0x7
    80000eaa:	21250513          	addi	a0,a0,530 # 800080b8 <digits+0x78>
    80000eae:	fffff097          	auipc	ra,0xfffff
    80000eb2:	6da080e7          	jalr	1754(ra) # 80000588 <printf>
    80000eb6:	00000097          	auipc	ra,0x0
    80000eba:	0d8080e7          	jalr	216(ra) # 80000f8e <kvminithart>
    80000ebe:	00002097          	auipc	ra,0x2
    80000ec2:	a2c080e7          	jalr	-1492(ra) # 800028ea <trapinithart>
    80000ec6:	00005097          	auipc	ra,0x5
    80000eca:	71a080e7          	jalr	1818(ra) # 800065e0 <plicinithart>
    80000ece:	00001097          	auipc	ra,0x1
    80000ed2:	00c080e7          	jalr	12(ra) # 80001eda <scheduler>
    80000ed6:	fffff097          	auipc	ra,0xfffff
    80000eda:	57a080e7          	jalr	1402(ra) # 80000450 <consoleinit>
    80000ede:	00000097          	auipc	ra,0x0
    80000ee2:	88a080e7          	jalr	-1910(ra) # 80000768 <printfinit>
    80000ee6:	00007517          	auipc	a0,0x7
    80000eea:	4b250513          	addi	a0,a0,1202 # 80008398 <states.0+0xd0>
    80000eee:	fffff097          	auipc	ra,0xfffff
    80000ef2:	69a080e7          	jalr	1690(ra) # 80000588 <printf>
    80000ef6:	00007517          	auipc	a0,0x7
    80000efa:	1aa50513          	addi	a0,a0,426 # 800080a0 <digits+0x60>
    80000efe:	fffff097          	auipc	ra,0xfffff
    80000f02:	68a080e7          	jalr	1674(ra) # 80000588 <printf>
    80000f06:	00007517          	auipc	a0,0x7
    80000f0a:	49250513          	addi	a0,a0,1170 # 80008398 <states.0+0xd0>
    80000f0e:	fffff097          	auipc	ra,0xfffff
    80000f12:	67a080e7          	jalr	1658(ra) # 80000588 <printf>
    80000f16:	00000097          	auipc	ra,0x0
    80000f1a:	b94080e7          	jalr	-1132(ra) # 80000aaa <kinit>
    80000f1e:	00000097          	auipc	ra,0x0
    80000f22:	326080e7          	jalr	806(ra) # 80001244 <kvminit>
    80000f26:	00000097          	auipc	ra,0x0
    80000f2a:	068080e7          	jalr	104(ra) # 80000f8e <kvminithart>
    80000f2e:	00001097          	auipc	ra,0x1
    80000f32:	99e080e7          	jalr	-1634(ra) # 800018cc <procinit>
    80000f36:	00002097          	auipc	ra,0x2
    80000f3a:	98c080e7          	jalr	-1652(ra) # 800028c2 <trapinit>
    80000f3e:	00002097          	auipc	ra,0x2
    80000f42:	9ac080e7          	jalr	-1620(ra) # 800028ea <trapinithart>
    80000f46:	00005097          	auipc	ra,0x5
    80000f4a:	684080e7          	jalr	1668(ra) # 800065ca <plicinit>
    80000f4e:	00005097          	auipc	ra,0x5
    80000f52:	692080e7          	jalr	1682(ra) # 800065e0 <plicinithart>
    80000f56:	00002097          	auipc	ra,0x2
    80000f5a:	78c080e7          	jalr	1932(ra) # 800036e2 <binit>
    80000f5e:	00003097          	auipc	ra,0x3
    80000f62:	e30080e7          	jalr	-464(ra) # 80003d8e <iinit>
    80000f66:	00004097          	auipc	ra,0x4
    80000f6a:	dce080e7          	jalr	-562(ra) # 80004d34 <fileinit>
    80000f6e:	00005097          	auipc	ra,0x5
    80000f72:	77a080e7          	jalr	1914(ra) # 800066e8 <virtio_disk_init>
    80000f76:	00001097          	auipc	ra,0x1
    80000f7a:	d46080e7          	jalr	-698(ra) # 80001cbc <userinit>
    80000f7e:	0ff0000f          	fence
    80000f82:	4785                	li	a5,1
    80000f84:	00008717          	auipc	a4,0x8
    80000f88:	94f72a23          	sw	a5,-1708(a4) # 800088d8 <started>
    80000f8c:	b789                	j	80000ece <main+0x56>

0000000080000f8e <kvminithart>:
    80000f8e:	1141                	addi	sp,sp,-16
    80000f90:	e422                	sd	s0,8(sp)
    80000f92:	0800                	addi	s0,sp,16
    80000f94:	12000073          	sfence.vma
    80000f98:	00008797          	auipc	a5,0x8
    80000f9c:	9487b783          	ld	a5,-1720(a5) # 800088e0 <kernel_pagetable>
    80000fa0:	83b1                	srli	a5,a5,0xc
    80000fa2:	577d                	li	a4,-1
    80000fa4:	177e                	slli	a4,a4,0x3f
    80000fa6:	8fd9                	or	a5,a5,a4
    80000fa8:	18079073          	csrw	satp,a5
    80000fac:	12000073          	sfence.vma
    80000fb0:	6422                	ld	s0,8(sp)
    80000fb2:	0141                	addi	sp,sp,16
    80000fb4:	8082                	ret

0000000080000fb6 <walk>:
    80000fb6:	7139                	addi	sp,sp,-64
    80000fb8:	fc06                	sd	ra,56(sp)
    80000fba:	f822                	sd	s0,48(sp)
    80000fbc:	f426                	sd	s1,40(sp)
    80000fbe:	f04a                	sd	s2,32(sp)
    80000fc0:	ec4e                	sd	s3,24(sp)
    80000fc2:	e852                	sd	s4,16(sp)
    80000fc4:	e456                	sd	s5,8(sp)
    80000fc6:	e05a                	sd	s6,0(sp)
    80000fc8:	0080                	addi	s0,sp,64
    80000fca:	84aa                	mv	s1,a0
    80000fcc:	89ae                	mv	s3,a1
    80000fce:	8ab2                	mv	s5,a2
    80000fd0:	57fd                	li	a5,-1
    80000fd2:	83e9                	srli	a5,a5,0x1a
    80000fd4:	4a79                	li	s4,30
    80000fd6:	4b31                	li	s6,12
    80000fd8:	04b7f263          	bgeu	a5,a1,8000101c <walk+0x66>
    80000fdc:	00007517          	auipc	a0,0x7
    80000fe0:	0f450513          	addi	a0,a0,244 # 800080d0 <digits+0x90>
    80000fe4:	fffff097          	auipc	ra,0xfffff
    80000fe8:	55a080e7          	jalr	1370(ra) # 8000053e <panic>
    80000fec:	060a8663          	beqz	s5,80001058 <walk+0xa2>
    80000ff0:	00000097          	auipc	ra,0x0
    80000ff4:	af6080e7          	jalr	-1290(ra) # 80000ae6 <kalloc>
    80000ff8:	84aa                	mv	s1,a0
    80000ffa:	c529                	beqz	a0,80001044 <walk+0x8e>
    80000ffc:	6605                	lui	a2,0x1
    80000ffe:	4581                	li	a1,0
    80001000:	00000097          	auipc	ra,0x0
    80001004:	cd2080e7          	jalr	-814(ra) # 80000cd2 <memset>
    80001008:	00c4d793          	srli	a5,s1,0xc
    8000100c:	07aa                	slli	a5,a5,0xa
    8000100e:	0017e793          	ori	a5,a5,1
    80001012:	00f93023          	sd	a5,0(s2)
    80001016:	3a5d                	addiw	s4,s4,-9
    80001018:	036a0063          	beq	s4,s6,80001038 <walk+0x82>
    8000101c:	0149d933          	srl	s2,s3,s4
    80001020:	1ff97913          	andi	s2,s2,511
    80001024:	090e                	slli	s2,s2,0x3
    80001026:	9926                	add	s2,s2,s1
    80001028:	00093483          	ld	s1,0(s2)
    8000102c:	0014f793          	andi	a5,s1,1
    80001030:	dfd5                	beqz	a5,80000fec <walk+0x36>
    80001032:	80a9                	srli	s1,s1,0xa
    80001034:	04b2                	slli	s1,s1,0xc
    80001036:	b7c5                	j	80001016 <walk+0x60>
    80001038:	00c9d513          	srli	a0,s3,0xc
    8000103c:	1ff57513          	andi	a0,a0,511
    80001040:	050e                	slli	a0,a0,0x3
    80001042:	9526                	add	a0,a0,s1
    80001044:	70e2                	ld	ra,56(sp)
    80001046:	7442                	ld	s0,48(sp)
    80001048:	74a2                	ld	s1,40(sp)
    8000104a:	7902                	ld	s2,32(sp)
    8000104c:	69e2                	ld	s3,24(sp)
    8000104e:	6a42                	ld	s4,16(sp)
    80001050:	6aa2                	ld	s5,8(sp)
    80001052:	6b02                	ld	s6,0(sp)
    80001054:	6121                	addi	sp,sp,64
    80001056:	8082                	ret
    80001058:	4501                	li	a0,0
    8000105a:	b7ed                	j	80001044 <walk+0x8e>

000000008000105c <walkaddr>:
    8000105c:	57fd                	li	a5,-1
    8000105e:	83e9                	srli	a5,a5,0x1a
    80001060:	00b7f463          	bgeu	a5,a1,80001068 <walkaddr+0xc>
    80001064:	4501                	li	a0,0
    80001066:	8082                	ret
    80001068:	1141                	addi	sp,sp,-16
    8000106a:	e406                	sd	ra,8(sp)
    8000106c:	e022                	sd	s0,0(sp)
    8000106e:	0800                	addi	s0,sp,16
    80001070:	4601                	li	a2,0
    80001072:	00000097          	auipc	ra,0x0
    80001076:	f44080e7          	jalr	-188(ra) # 80000fb6 <walk>
    8000107a:	c105                	beqz	a0,8000109a <walkaddr+0x3e>
    8000107c:	611c                	ld	a5,0(a0)
    8000107e:	0117f693          	andi	a3,a5,17
    80001082:	4745                	li	a4,17
    80001084:	4501                	li	a0,0
    80001086:	00e68663          	beq	a3,a4,80001092 <walkaddr+0x36>
    8000108a:	60a2                	ld	ra,8(sp)
    8000108c:	6402                	ld	s0,0(sp)
    8000108e:	0141                	addi	sp,sp,16
    80001090:	8082                	ret
    80001092:	00a7d513          	srli	a0,a5,0xa
    80001096:	0532                	slli	a0,a0,0xc
    80001098:	bfcd                	j	8000108a <walkaddr+0x2e>
    8000109a:	4501                	li	a0,0
    8000109c:	b7fd                	j	8000108a <walkaddr+0x2e>

000000008000109e <mappages>:
    8000109e:	715d                	addi	sp,sp,-80
    800010a0:	e486                	sd	ra,72(sp)
    800010a2:	e0a2                	sd	s0,64(sp)
    800010a4:	fc26                	sd	s1,56(sp)
    800010a6:	f84a                	sd	s2,48(sp)
    800010a8:	f44e                	sd	s3,40(sp)
    800010aa:	f052                	sd	s4,32(sp)
    800010ac:	ec56                	sd	s5,24(sp)
    800010ae:	e85a                	sd	s6,16(sp)
    800010b0:	e45e                	sd	s7,8(sp)
    800010b2:	0880                	addi	s0,sp,80
    800010b4:	c639                	beqz	a2,80001102 <mappages+0x64>
    800010b6:	8aaa                	mv	s5,a0
    800010b8:	8b3a                	mv	s6,a4
    800010ba:	77fd                	lui	a5,0xfffff
    800010bc:	00f5fa33          	and	s4,a1,a5
    800010c0:	15fd                	addi	a1,a1,-1
    800010c2:	00c589b3          	add	s3,a1,a2
    800010c6:	00f9f9b3          	and	s3,s3,a5
    800010ca:	8952                	mv	s2,s4
    800010cc:	41468a33          	sub	s4,a3,s4
    800010d0:	6b85                	lui	s7,0x1
    800010d2:	012a04b3          	add	s1,s4,s2
    800010d6:	4605                	li	a2,1
    800010d8:	85ca                	mv	a1,s2
    800010da:	8556                	mv	a0,s5
    800010dc:	00000097          	auipc	ra,0x0
    800010e0:	eda080e7          	jalr	-294(ra) # 80000fb6 <walk>
    800010e4:	cd1d                	beqz	a0,80001122 <mappages+0x84>
    800010e6:	611c                	ld	a5,0(a0)
    800010e8:	8b85                	andi	a5,a5,1
    800010ea:	e785                	bnez	a5,80001112 <mappages+0x74>
    800010ec:	80b1                	srli	s1,s1,0xc
    800010ee:	04aa                	slli	s1,s1,0xa
    800010f0:	0164e4b3          	or	s1,s1,s6
    800010f4:	0014e493          	ori	s1,s1,1
    800010f8:	e104                	sd	s1,0(a0)
    800010fa:	05390063          	beq	s2,s3,8000113a <mappages+0x9c>
    800010fe:	995e                	add	s2,s2,s7
    80001100:	bfc9                	j	800010d2 <mappages+0x34>
    80001102:	00007517          	auipc	a0,0x7
    80001106:	fd650513          	addi	a0,a0,-42 # 800080d8 <digits+0x98>
    8000110a:	fffff097          	auipc	ra,0xfffff
    8000110e:	434080e7          	jalr	1076(ra) # 8000053e <panic>
    80001112:	00007517          	auipc	a0,0x7
    80001116:	fd650513          	addi	a0,a0,-42 # 800080e8 <digits+0xa8>
    8000111a:	fffff097          	auipc	ra,0xfffff
    8000111e:	424080e7          	jalr	1060(ra) # 8000053e <panic>
    80001122:	557d                	li	a0,-1
    80001124:	60a6                	ld	ra,72(sp)
    80001126:	6406                	ld	s0,64(sp)
    80001128:	74e2                	ld	s1,56(sp)
    8000112a:	7942                	ld	s2,48(sp)
    8000112c:	79a2                	ld	s3,40(sp)
    8000112e:	7a02                	ld	s4,32(sp)
    80001130:	6ae2                	ld	s5,24(sp)
    80001132:	6b42                	ld	s6,16(sp)
    80001134:	6ba2                	ld	s7,8(sp)
    80001136:	6161                	addi	sp,sp,80
    80001138:	8082                	ret
    8000113a:	4501                	li	a0,0
    8000113c:	b7e5                	j	80001124 <mappages+0x86>

000000008000113e <kvmmap>:
    8000113e:	1141                	addi	sp,sp,-16
    80001140:	e406                	sd	ra,8(sp)
    80001142:	e022                	sd	s0,0(sp)
    80001144:	0800                	addi	s0,sp,16
    80001146:	87b6                	mv	a5,a3
    80001148:	86b2                	mv	a3,a2
    8000114a:	863e                	mv	a2,a5
    8000114c:	00000097          	auipc	ra,0x0
    80001150:	f52080e7          	jalr	-174(ra) # 8000109e <mappages>
    80001154:	e509                	bnez	a0,8000115e <kvmmap+0x20>
    80001156:	60a2                	ld	ra,8(sp)
    80001158:	6402                	ld	s0,0(sp)
    8000115a:	0141                	addi	sp,sp,16
    8000115c:	8082                	ret
    8000115e:	00007517          	auipc	a0,0x7
    80001162:	f9a50513          	addi	a0,a0,-102 # 800080f8 <digits+0xb8>
    80001166:	fffff097          	auipc	ra,0xfffff
    8000116a:	3d8080e7          	jalr	984(ra) # 8000053e <panic>

000000008000116e <kvmmake>:
    8000116e:	1101                	addi	sp,sp,-32
    80001170:	ec06                	sd	ra,24(sp)
    80001172:	e822                	sd	s0,16(sp)
    80001174:	e426                	sd	s1,8(sp)
    80001176:	e04a                	sd	s2,0(sp)
    80001178:	1000                	addi	s0,sp,32
    8000117a:	00000097          	auipc	ra,0x0
    8000117e:	96c080e7          	jalr	-1684(ra) # 80000ae6 <kalloc>
    80001182:	84aa                	mv	s1,a0
    80001184:	6605                	lui	a2,0x1
    80001186:	4581                	li	a1,0
    80001188:	00000097          	auipc	ra,0x0
    8000118c:	b4a080e7          	jalr	-1206(ra) # 80000cd2 <memset>
    80001190:	4719                	li	a4,6
    80001192:	6685                	lui	a3,0x1
    80001194:	10000637          	lui	a2,0x10000
    80001198:	100005b7          	lui	a1,0x10000
    8000119c:	8526                	mv	a0,s1
    8000119e:	00000097          	auipc	ra,0x0
    800011a2:	fa0080e7          	jalr	-96(ra) # 8000113e <kvmmap>
    800011a6:	4719                	li	a4,6
    800011a8:	6685                	lui	a3,0x1
    800011aa:	10001637          	lui	a2,0x10001
    800011ae:	100015b7          	lui	a1,0x10001
    800011b2:	8526                	mv	a0,s1
    800011b4:	00000097          	auipc	ra,0x0
    800011b8:	f8a080e7          	jalr	-118(ra) # 8000113e <kvmmap>
    800011bc:	4719                	li	a4,6
    800011be:	004006b7          	lui	a3,0x400
    800011c2:	0c000637          	lui	a2,0xc000
    800011c6:	0c0005b7          	lui	a1,0xc000
    800011ca:	8526                	mv	a0,s1
    800011cc:	00000097          	auipc	ra,0x0
    800011d0:	f72080e7          	jalr	-142(ra) # 8000113e <kvmmap>
    800011d4:	00007917          	auipc	s2,0x7
    800011d8:	e2c90913          	addi	s2,s2,-468 # 80008000 <etext>
    800011dc:	4729                	li	a4,10
    800011de:	80007697          	auipc	a3,0x80007
    800011e2:	e2268693          	addi	a3,a3,-478 # 8000 <_entry-0x7fff8000>
    800011e6:	4605                	li	a2,1
    800011e8:	067e                	slli	a2,a2,0x1f
    800011ea:	85b2                	mv	a1,a2
    800011ec:	8526                	mv	a0,s1
    800011ee:	00000097          	auipc	ra,0x0
    800011f2:	f50080e7          	jalr	-176(ra) # 8000113e <kvmmap>
    800011f6:	4719                	li	a4,6
    800011f8:	46c5                	li	a3,17
    800011fa:	06ee                	slli	a3,a3,0x1b
    800011fc:	412686b3          	sub	a3,a3,s2
    80001200:	864a                	mv	a2,s2
    80001202:	85ca                	mv	a1,s2
    80001204:	8526                	mv	a0,s1
    80001206:	00000097          	auipc	ra,0x0
    8000120a:	f38080e7          	jalr	-200(ra) # 8000113e <kvmmap>
    8000120e:	4729                	li	a4,10
    80001210:	6685                	lui	a3,0x1
    80001212:	00006617          	auipc	a2,0x6
    80001216:	dee60613          	addi	a2,a2,-530 # 80007000 <_trampoline>
    8000121a:	040005b7          	lui	a1,0x4000
    8000121e:	15fd                	addi	a1,a1,-1
    80001220:	05b2                	slli	a1,a1,0xc
    80001222:	8526                	mv	a0,s1
    80001224:	00000097          	auipc	ra,0x0
    80001228:	f1a080e7          	jalr	-230(ra) # 8000113e <kvmmap>
    8000122c:	8526                	mv	a0,s1
    8000122e:	00000097          	auipc	ra,0x0
    80001232:	608080e7          	jalr	1544(ra) # 80001836 <proc_mapstacks>
    80001236:	8526                	mv	a0,s1
    80001238:	60e2                	ld	ra,24(sp)
    8000123a:	6442                	ld	s0,16(sp)
    8000123c:	64a2                	ld	s1,8(sp)
    8000123e:	6902                	ld	s2,0(sp)
    80001240:	6105                	addi	sp,sp,32
    80001242:	8082                	ret

0000000080001244 <kvminit>:
    80001244:	1141                	addi	sp,sp,-16
    80001246:	e406                	sd	ra,8(sp)
    80001248:	e022                	sd	s0,0(sp)
    8000124a:	0800                	addi	s0,sp,16
    8000124c:	00000097          	auipc	ra,0x0
    80001250:	f22080e7          	jalr	-222(ra) # 8000116e <kvmmake>
    80001254:	00007797          	auipc	a5,0x7
    80001258:	68a7b623          	sd	a0,1676(a5) # 800088e0 <kernel_pagetable>
    8000125c:	60a2                	ld	ra,8(sp)
    8000125e:	6402                	ld	s0,0(sp)
    80001260:	0141                	addi	sp,sp,16
    80001262:	8082                	ret

0000000080001264 <uvmunmap>:
    80001264:	715d                	addi	sp,sp,-80
    80001266:	e486                	sd	ra,72(sp)
    80001268:	e0a2                	sd	s0,64(sp)
    8000126a:	fc26                	sd	s1,56(sp)
    8000126c:	f84a                	sd	s2,48(sp)
    8000126e:	f44e                	sd	s3,40(sp)
    80001270:	f052                	sd	s4,32(sp)
    80001272:	ec56                	sd	s5,24(sp)
    80001274:	e85a                	sd	s6,16(sp)
    80001276:	e45e                	sd	s7,8(sp)
    80001278:	0880                	addi	s0,sp,80
    8000127a:	03459793          	slli	a5,a1,0x34
    8000127e:	e795                	bnez	a5,800012aa <uvmunmap+0x46>
    80001280:	8a2a                	mv	s4,a0
    80001282:	892e                	mv	s2,a1
    80001284:	8ab6                	mv	s5,a3
    80001286:	0632                	slli	a2,a2,0xc
    80001288:	00b609b3          	add	s3,a2,a1
    8000128c:	4b85                	li	s7,1
    8000128e:	6b05                	lui	s6,0x1
    80001290:	0735e263          	bltu	a1,s3,800012f4 <uvmunmap+0x90>
    80001294:	60a6                	ld	ra,72(sp)
    80001296:	6406                	ld	s0,64(sp)
    80001298:	74e2                	ld	s1,56(sp)
    8000129a:	7942                	ld	s2,48(sp)
    8000129c:	79a2                	ld	s3,40(sp)
    8000129e:	7a02                	ld	s4,32(sp)
    800012a0:	6ae2                	ld	s5,24(sp)
    800012a2:	6b42                	ld	s6,16(sp)
    800012a4:	6ba2                	ld	s7,8(sp)
    800012a6:	6161                	addi	sp,sp,80
    800012a8:	8082                	ret
    800012aa:	00007517          	auipc	a0,0x7
    800012ae:	e5650513          	addi	a0,a0,-426 # 80008100 <digits+0xc0>
    800012b2:	fffff097          	auipc	ra,0xfffff
    800012b6:	28c080e7          	jalr	652(ra) # 8000053e <panic>
    800012ba:	00007517          	auipc	a0,0x7
    800012be:	e5e50513          	addi	a0,a0,-418 # 80008118 <digits+0xd8>
    800012c2:	fffff097          	auipc	ra,0xfffff
    800012c6:	27c080e7          	jalr	636(ra) # 8000053e <panic>
    800012ca:	00007517          	auipc	a0,0x7
    800012ce:	e5e50513          	addi	a0,a0,-418 # 80008128 <digits+0xe8>
    800012d2:	fffff097          	auipc	ra,0xfffff
    800012d6:	26c080e7          	jalr	620(ra) # 8000053e <panic>
    800012da:	00007517          	auipc	a0,0x7
    800012de:	e6650513          	addi	a0,a0,-410 # 80008140 <digits+0x100>
    800012e2:	fffff097          	auipc	ra,0xfffff
    800012e6:	25c080e7          	jalr	604(ra) # 8000053e <panic>
    800012ea:	0004b023          	sd	zero,0(s1)
    800012ee:	995a                	add	s2,s2,s6
    800012f0:	fb3972e3          	bgeu	s2,s3,80001294 <uvmunmap+0x30>
    800012f4:	4601                	li	a2,0
    800012f6:	85ca                	mv	a1,s2
    800012f8:	8552                	mv	a0,s4
    800012fa:	00000097          	auipc	ra,0x0
    800012fe:	cbc080e7          	jalr	-836(ra) # 80000fb6 <walk>
    80001302:	84aa                	mv	s1,a0
    80001304:	d95d                	beqz	a0,800012ba <uvmunmap+0x56>
    80001306:	6108                	ld	a0,0(a0)
    80001308:	00157793          	andi	a5,a0,1
    8000130c:	dfdd                	beqz	a5,800012ca <uvmunmap+0x66>
    8000130e:	3ff57793          	andi	a5,a0,1023
    80001312:	fd7784e3          	beq	a5,s7,800012da <uvmunmap+0x76>
    80001316:	fc0a8ae3          	beqz	s5,800012ea <uvmunmap+0x86>
    8000131a:	8129                	srli	a0,a0,0xa
    8000131c:	0532                	slli	a0,a0,0xc
    8000131e:	fffff097          	auipc	ra,0xfffff
    80001322:	6cc080e7          	jalr	1740(ra) # 800009ea <kfree>
    80001326:	b7d1                	j	800012ea <uvmunmap+0x86>

0000000080001328 <uvmcreate>:
    80001328:	1101                	addi	sp,sp,-32
    8000132a:	ec06                	sd	ra,24(sp)
    8000132c:	e822                	sd	s0,16(sp)
    8000132e:	e426                	sd	s1,8(sp)
    80001330:	1000                	addi	s0,sp,32
    80001332:	fffff097          	auipc	ra,0xfffff
    80001336:	7b4080e7          	jalr	1972(ra) # 80000ae6 <kalloc>
    8000133a:	84aa                	mv	s1,a0
    8000133c:	c519                	beqz	a0,8000134a <uvmcreate+0x22>
    8000133e:	6605                	lui	a2,0x1
    80001340:	4581                	li	a1,0
    80001342:	00000097          	auipc	ra,0x0
    80001346:	990080e7          	jalr	-1648(ra) # 80000cd2 <memset>
    8000134a:	8526                	mv	a0,s1
    8000134c:	60e2                	ld	ra,24(sp)
    8000134e:	6442                	ld	s0,16(sp)
    80001350:	64a2                	ld	s1,8(sp)
    80001352:	6105                	addi	sp,sp,32
    80001354:	8082                	ret

0000000080001356 <uvmfirst>:
    80001356:	7179                	addi	sp,sp,-48
    80001358:	f406                	sd	ra,40(sp)
    8000135a:	f022                	sd	s0,32(sp)
    8000135c:	ec26                	sd	s1,24(sp)
    8000135e:	e84a                	sd	s2,16(sp)
    80001360:	e44e                	sd	s3,8(sp)
    80001362:	e052                	sd	s4,0(sp)
    80001364:	1800                	addi	s0,sp,48
    80001366:	6785                	lui	a5,0x1
    80001368:	04f67863          	bgeu	a2,a5,800013b8 <uvmfirst+0x62>
    8000136c:	8a2a                	mv	s4,a0
    8000136e:	89ae                	mv	s3,a1
    80001370:	84b2                	mv	s1,a2
    80001372:	fffff097          	auipc	ra,0xfffff
    80001376:	774080e7          	jalr	1908(ra) # 80000ae6 <kalloc>
    8000137a:	892a                	mv	s2,a0
    8000137c:	6605                	lui	a2,0x1
    8000137e:	4581                	li	a1,0
    80001380:	00000097          	auipc	ra,0x0
    80001384:	952080e7          	jalr	-1710(ra) # 80000cd2 <memset>
    80001388:	4779                	li	a4,30
    8000138a:	86ca                	mv	a3,s2
    8000138c:	6605                	lui	a2,0x1
    8000138e:	4581                	li	a1,0
    80001390:	8552                	mv	a0,s4
    80001392:	00000097          	auipc	ra,0x0
    80001396:	d0c080e7          	jalr	-756(ra) # 8000109e <mappages>
    8000139a:	8626                	mv	a2,s1
    8000139c:	85ce                	mv	a1,s3
    8000139e:	854a                	mv	a0,s2
    800013a0:	00000097          	auipc	ra,0x0
    800013a4:	98e080e7          	jalr	-1650(ra) # 80000d2e <memmove>
    800013a8:	70a2                	ld	ra,40(sp)
    800013aa:	7402                	ld	s0,32(sp)
    800013ac:	64e2                	ld	s1,24(sp)
    800013ae:	6942                	ld	s2,16(sp)
    800013b0:	69a2                	ld	s3,8(sp)
    800013b2:	6a02                	ld	s4,0(sp)
    800013b4:	6145                	addi	sp,sp,48
    800013b6:	8082                	ret
    800013b8:	00007517          	auipc	a0,0x7
    800013bc:	da050513          	addi	a0,a0,-608 # 80008158 <digits+0x118>
    800013c0:	fffff097          	auipc	ra,0xfffff
    800013c4:	17e080e7          	jalr	382(ra) # 8000053e <panic>

00000000800013c8 <uvmdealloc>:
    800013c8:	1101                	addi	sp,sp,-32
    800013ca:	ec06                	sd	ra,24(sp)
    800013cc:	e822                	sd	s0,16(sp)
    800013ce:	e426                	sd	s1,8(sp)
    800013d0:	1000                	addi	s0,sp,32
    800013d2:	84ae                	mv	s1,a1
    800013d4:	00b67d63          	bgeu	a2,a1,800013ee <uvmdealloc+0x26>
    800013d8:	84b2                	mv	s1,a2
    800013da:	6785                	lui	a5,0x1
    800013dc:	17fd                	addi	a5,a5,-1
    800013de:	00f60733          	add	a4,a2,a5
    800013e2:	767d                	lui	a2,0xfffff
    800013e4:	8f71                	and	a4,a4,a2
    800013e6:	97ae                	add	a5,a5,a1
    800013e8:	8ff1                	and	a5,a5,a2
    800013ea:	00f76863          	bltu	a4,a5,800013fa <uvmdealloc+0x32>
    800013ee:	8526                	mv	a0,s1
    800013f0:	60e2                	ld	ra,24(sp)
    800013f2:	6442                	ld	s0,16(sp)
    800013f4:	64a2                	ld	s1,8(sp)
    800013f6:	6105                	addi	sp,sp,32
    800013f8:	8082                	ret
    800013fa:	8f99                	sub	a5,a5,a4
    800013fc:	83b1                	srli	a5,a5,0xc
    800013fe:	4685                	li	a3,1
    80001400:	0007861b          	sext.w	a2,a5
    80001404:	85ba                	mv	a1,a4
    80001406:	00000097          	auipc	ra,0x0
    8000140a:	e5e080e7          	jalr	-418(ra) # 80001264 <uvmunmap>
    8000140e:	b7c5                	j	800013ee <uvmdealloc+0x26>

0000000080001410 <uvmalloc>:
    80001410:	0ab66563          	bltu	a2,a1,800014ba <uvmalloc+0xaa>
    80001414:	7139                	addi	sp,sp,-64
    80001416:	fc06                	sd	ra,56(sp)
    80001418:	f822                	sd	s0,48(sp)
    8000141a:	f426                	sd	s1,40(sp)
    8000141c:	f04a                	sd	s2,32(sp)
    8000141e:	ec4e                	sd	s3,24(sp)
    80001420:	e852                	sd	s4,16(sp)
    80001422:	e456                	sd	s5,8(sp)
    80001424:	e05a                	sd	s6,0(sp)
    80001426:	0080                	addi	s0,sp,64
    80001428:	8aaa                	mv	s5,a0
    8000142a:	8a32                	mv	s4,a2
    8000142c:	6985                	lui	s3,0x1
    8000142e:	19fd                	addi	s3,s3,-1
    80001430:	95ce                	add	a1,a1,s3
    80001432:	79fd                	lui	s3,0xfffff
    80001434:	0135f9b3          	and	s3,a1,s3
    80001438:	08c9f363          	bgeu	s3,a2,800014be <uvmalloc+0xae>
    8000143c:	894e                	mv	s2,s3
    8000143e:	0126eb13          	ori	s6,a3,18
    80001442:	fffff097          	auipc	ra,0xfffff
    80001446:	6a4080e7          	jalr	1700(ra) # 80000ae6 <kalloc>
    8000144a:	84aa                	mv	s1,a0
    8000144c:	c51d                	beqz	a0,8000147a <uvmalloc+0x6a>
    8000144e:	6605                	lui	a2,0x1
    80001450:	4581                	li	a1,0
    80001452:	00000097          	auipc	ra,0x0
    80001456:	880080e7          	jalr	-1920(ra) # 80000cd2 <memset>
    8000145a:	875a                	mv	a4,s6
    8000145c:	86a6                	mv	a3,s1
    8000145e:	6605                	lui	a2,0x1
    80001460:	85ca                	mv	a1,s2
    80001462:	8556                	mv	a0,s5
    80001464:	00000097          	auipc	ra,0x0
    80001468:	c3a080e7          	jalr	-966(ra) # 8000109e <mappages>
    8000146c:	e90d                	bnez	a0,8000149e <uvmalloc+0x8e>
    8000146e:	6785                	lui	a5,0x1
    80001470:	993e                	add	s2,s2,a5
    80001472:	fd4968e3          	bltu	s2,s4,80001442 <uvmalloc+0x32>
    80001476:	8552                	mv	a0,s4
    80001478:	a809                	j	8000148a <uvmalloc+0x7a>
    8000147a:	864e                	mv	a2,s3
    8000147c:	85ca                	mv	a1,s2
    8000147e:	8556                	mv	a0,s5
    80001480:	00000097          	auipc	ra,0x0
    80001484:	f48080e7          	jalr	-184(ra) # 800013c8 <uvmdealloc>
    80001488:	4501                	li	a0,0
    8000148a:	70e2                	ld	ra,56(sp)
    8000148c:	7442                	ld	s0,48(sp)
    8000148e:	74a2                	ld	s1,40(sp)
    80001490:	7902                	ld	s2,32(sp)
    80001492:	69e2                	ld	s3,24(sp)
    80001494:	6a42                	ld	s4,16(sp)
    80001496:	6aa2                	ld	s5,8(sp)
    80001498:	6b02                	ld	s6,0(sp)
    8000149a:	6121                	addi	sp,sp,64
    8000149c:	8082                	ret
    8000149e:	8526                	mv	a0,s1
    800014a0:	fffff097          	auipc	ra,0xfffff
    800014a4:	54a080e7          	jalr	1354(ra) # 800009ea <kfree>
    800014a8:	864e                	mv	a2,s3
    800014aa:	85ca                	mv	a1,s2
    800014ac:	8556                	mv	a0,s5
    800014ae:	00000097          	auipc	ra,0x0
    800014b2:	f1a080e7          	jalr	-230(ra) # 800013c8 <uvmdealloc>
    800014b6:	4501                	li	a0,0
    800014b8:	bfc9                	j	8000148a <uvmalloc+0x7a>
    800014ba:	852e                	mv	a0,a1
    800014bc:	8082                	ret
    800014be:	8532                	mv	a0,a2
    800014c0:	b7e9                	j	8000148a <uvmalloc+0x7a>

00000000800014c2 <freewalk>:
    800014c2:	7179                	addi	sp,sp,-48
    800014c4:	f406                	sd	ra,40(sp)
    800014c6:	f022                	sd	s0,32(sp)
    800014c8:	ec26                	sd	s1,24(sp)
    800014ca:	e84a                	sd	s2,16(sp)
    800014cc:	e44e                	sd	s3,8(sp)
    800014ce:	e052                	sd	s4,0(sp)
    800014d0:	1800                	addi	s0,sp,48
    800014d2:	8a2a                	mv	s4,a0
    800014d4:	84aa                	mv	s1,a0
    800014d6:	6905                	lui	s2,0x1
    800014d8:	992a                	add	s2,s2,a0
    800014da:	4985                	li	s3,1
    800014dc:	a821                	j	800014f4 <freewalk+0x32>
    800014de:	8129                	srli	a0,a0,0xa
    800014e0:	0532                	slli	a0,a0,0xc
    800014e2:	00000097          	auipc	ra,0x0
    800014e6:	fe0080e7          	jalr	-32(ra) # 800014c2 <freewalk>
    800014ea:	0004b023          	sd	zero,0(s1)
    800014ee:	04a1                	addi	s1,s1,8
    800014f0:	03248163          	beq	s1,s2,80001512 <freewalk+0x50>
    800014f4:	6088                	ld	a0,0(s1)
    800014f6:	00f57793          	andi	a5,a0,15
    800014fa:	ff3782e3          	beq	a5,s3,800014de <freewalk+0x1c>
    800014fe:	8905                	andi	a0,a0,1
    80001500:	d57d                	beqz	a0,800014ee <freewalk+0x2c>
    80001502:	00007517          	auipc	a0,0x7
    80001506:	c7650513          	addi	a0,a0,-906 # 80008178 <digits+0x138>
    8000150a:	fffff097          	auipc	ra,0xfffff
    8000150e:	034080e7          	jalr	52(ra) # 8000053e <panic>
    80001512:	8552                	mv	a0,s4
    80001514:	fffff097          	auipc	ra,0xfffff
    80001518:	4d6080e7          	jalr	1238(ra) # 800009ea <kfree>
    8000151c:	70a2                	ld	ra,40(sp)
    8000151e:	7402                	ld	s0,32(sp)
    80001520:	64e2                	ld	s1,24(sp)
    80001522:	6942                	ld	s2,16(sp)
    80001524:	69a2                	ld	s3,8(sp)
    80001526:	6a02                	ld	s4,0(sp)
    80001528:	6145                	addi	sp,sp,48
    8000152a:	8082                	ret

000000008000152c <uvmfree>:
    8000152c:	1101                	addi	sp,sp,-32
    8000152e:	ec06                	sd	ra,24(sp)
    80001530:	e822                	sd	s0,16(sp)
    80001532:	e426                	sd	s1,8(sp)
    80001534:	1000                	addi	s0,sp,32
    80001536:	84aa                	mv	s1,a0
    80001538:	e999                	bnez	a1,8000154e <uvmfree+0x22>
    8000153a:	8526                	mv	a0,s1
    8000153c:	00000097          	auipc	ra,0x0
    80001540:	f86080e7          	jalr	-122(ra) # 800014c2 <freewalk>
    80001544:	60e2                	ld	ra,24(sp)
    80001546:	6442                	ld	s0,16(sp)
    80001548:	64a2                	ld	s1,8(sp)
    8000154a:	6105                	addi	sp,sp,32
    8000154c:	8082                	ret
    8000154e:	6605                	lui	a2,0x1
    80001550:	167d                	addi	a2,a2,-1
    80001552:	962e                	add	a2,a2,a1
    80001554:	4685                	li	a3,1
    80001556:	8231                	srli	a2,a2,0xc
    80001558:	4581                	li	a1,0
    8000155a:	00000097          	auipc	ra,0x0
    8000155e:	d0a080e7          	jalr	-758(ra) # 80001264 <uvmunmap>
    80001562:	bfe1                	j	8000153a <uvmfree+0xe>

0000000080001564 <uvmcopy>:
    80001564:	c679                	beqz	a2,80001632 <uvmcopy+0xce>
    80001566:	715d                	addi	sp,sp,-80
    80001568:	e486                	sd	ra,72(sp)
    8000156a:	e0a2                	sd	s0,64(sp)
    8000156c:	fc26                	sd	s1,56(sp)
    8000156e:	f84a                	sd	s2,48(sp)
    80001570:	f44e                	sd	s3,40(sp)
    80001572:	f052                	sd	s4,32(sp)
    80001574:	ec56                	sd	s5,24(sp)
    80001576:	e85a                	sd	s6,16(sp)
    80001578:	e45e                	sd	s7,8(sp)
    8000157a:	0880                	addi	s0,sp,80
    8000157c:	8b2a                	mv	s6,a0
    8000157e:	8aae                	mv	s5,a1
    80001580:	8a32                	mv	s4,a2
    80001582:	4981                	li	s3,0
    80001584:	4601                	li	a2,0
    80001586:	85ce                	mv	a1,s3
    80001588:	855a                	mv	a0,s6
    8000158a:	00000097          	auipc	ra,0x0
    8000158e:	a2c080e7          	jalr	-1492(ra) # 80000fb6 <walk>
    80001592:	c531                	beqz	a0,800015de <uvmcopy+0x7a>
    80001594:	6118                	ld	a4,0(a0)
    80001596:	00177793          	andi	a5,a4,1
    8000159a:	cbb1                	beqz	a5,800015ee <uvmcopy+0x8a>
    8000159c:	00a75593          	srli	a1,a4,0xa
    800015a0:	00c59b93          	slli	s7,a1,0xc
    800015a4:	3ff77493          	andi	s1,a4,1023
    800015a8:	fffff097          	auipc	ra,0xfffff
    800015ac:	53e080e7          	jalr	1342(ra) # 80000ae6 <kalloc>
    800015b0:	892a                	mv	s2,a0
    800015b2:	c939                	beqz	a0,80001608 <uvmcopy+0xa4>
    800015b4:	6605                	lui	a2,0x1
    800015b6:	85de                	mv	a1,s7
    800015b8:	fffff097          	auipc	ra,0xfffff
    800015bc:	776080e7          	jalr	1910(ra) # 80000d2e <memmove>
    800015c0:	8726                	mv	a4,s1
    800015c2:	86ca                	mv	a3,s2
    800015c4:	6605                	lui	a2,0x1
    800015c6:	85ce                	mv	a1,s3
    800015c8:	8556                	mv	a0,s5
    800015ca:	00000097          	auipc	ra,0x0
    800015ce:	ad4080e7          	jalr	-1324(ra) # 8000109e <mappages>
    800015d2:	e515                	bnez	a0,800015fe <uvmcopy+0x9a>
    800015d4:	6785                	lui	a5,0x1
    800015d6:	99be                	add	s3,s3,a5
    800015d8:	fb49e6e3          	bltu	s3,s4,80001584 <uvmcopy+0x20>
    800015dc:	a081                	j	8000161c <uvmcopy+0xb8>
    800015de:	00007517          	auipc	a0,0x7
    800015e2:	baa50513          	addi	a0,a0,-1110 # 80008188 <digits+0x148>
    800015e6:	fffff097          	auipc	ra,0xfffff
    800015ea:	f58080e7          	jalr	-168(ra) # 8000053e <panic>
    800015ee:	00007517          	auipc	a0,0x7
    800015f2:	bba50513          	addi	a0,a0,-1094 # 800081a8 <digits+0x168>
    800015f6:	fffff097          	auipc	ra,0xfffff
    800015fa:	f48080e7          	jalr	-184(ra) # 8000053e <panic>
    800015fe:	854a                	mv	a0,s2
    80001600:	fffff097          	auipc	ra,0xfffff
    80001604:	3ea080e7          	jalr	1002(ra) # 800009ea <kfree>
    80001608:	4685                	li	a3,1
    8000160a:	00c9d613          	srli	a2,s3,0xc
    8000160e:	4581                	li	a1,0
    80001610:	8556                	mv	a0,s5
    80001612:	00000097          	auipc	ra,0x0
    80001616:	c52080e7          	jalr	-942(ra) # 80001264 <uvmunmap>
    8000161a:	557d                	li	a0,-1
    8000161c:	60a6                	ld	ra,72(sp)
    8000161e:	6406                	ld	s0,64(sp)
    80001620:	74e2                	ld	s1,56(sp)
    80001622:	7942                	ld	s2,48(sp)
    80001624:	79a2                	ld	s3,40(sp)
    80001626:	7a02                	ld	s4,32(sp)
    80001628:	6ae2                	ld	s5,24(sp)
    8000162a:	6b42                	ld	s6,16(sp)
    8000162c:	6ba2                	ld	s7,8(sp)
    8000162e:	6161                	addi	sp,sp,80
    80001630:	8082                	ret
    80001632:	4501                	li	a0,0
    80001634:	8082                	ret

0000000080001636 <uvmclear>:
    80001636:	1141                	addi	sp,sp,-16
    80001638:	e406                	sd	ra,8(sp)
    8000163a:	e022                	sd	s0,0(sp)
    8000163c:	0800                	addi	s0,sp,16
    8000163e:	4601                	li	a2,0
    80001640:	00000097          	auipc	ra,0x0
    80001644:	976080e7          	jalr	-1674(ra) # 80000fb6 <walk>
    80001648:	c901                	beqz	a0,80001658 <uvmclear+0x22>
    8000164a:	611c                	ld	a5,0(a0)
    8000164c:	9bbd                	andi	a5,a5,-17
    8000164e:	e11c                	sd	a5,0(a0)
    80001650:	60a2                	ld	ra,8(sp)
    80001652:	6402                	ld	s0,0(sp)
    80001654:	0141                	addi	sp,sp,16
    80001656:	8082                	ret
    80001658:	00007517          	auipc	a0,0x7
    8000165c:	b7050513          	addi	a0,a0,-1168 # 800081c8 <digits+0x188>
    80001660:	fffff097          	auipc	ra,0xfffff
    80001664:	ede080e7          	jalr	-290(ra) # 8000053e <panic>

0000000080001668 <copyout>:
    80001668:	c6bd                	beqz	a3,800016d6 <copyout+0x6e>
    8000166a:	715d                	addi	sp,sp,-80
    8000166c:	e486                	sd	ra,72(sp)
    8000166e:	e0a2                	sd	s0,64(sp)
    80001670:	fc26                	sd	s1,56(sp)
    80001672:	f84a                	sd	s2,48(sp)
    80001674:	f44e                	sd	s3,40(sp)
    80001676:	f052                	sd	s4,32(sp)
    80001678:	ec56                	sd	s5,24(sp)
    8000167a:	e85a                	sd	s6,16(sp)
    8000167c:	e45e                	sd	s7,8(sp)
    8000167e:	e062                	sd	s8,0(sp)
    80001680:	0880                	addi	s0,sp,80
    80001682:	8b2a                	mv	s6,a0
    80001684:	8c2e                	mv	s8,a1
    80001686:	8a32                	mv	s4,a2
    80001688:	89b6                	mv	s3,a3
    8000168a:	7bfd                	lui	s7,0xfffff
    8000168c:	6a85                	lui	s5,0x1
    8000168e:	a015                	j	800016b2 <copyout+0x4a>
    80001690:	9562                	add	a0,a0,s8
    80001692:	0004861b          	sext.w	a2,s1
    80001696:	85d2                	mv	a1,s4
    80001698:	41250533          	sub	a0,a0,s2
    8000169c:	fffff097          	auipc	ra,0xfffff
    800016a0:	692080e7          	jalr	1682(ra) # 80000d2e <memmove>
    800016a4:	409989b3          	sub	s3,s3,s1
    800016a8:	9a26                	add	s4,s4,s1
    800016aa:	01590c33          	add	s8,s2,s5
    800016ae:	02098263          	beqz	s3,800016d2 <copyout+0x6a>
    800016b2:	017c7933          	and	s2,s8,s7
    800016b6:	85ca                	mv	a1,s2
    800016b8:	855a                	mv	a0,s6
    800016ba:	00000097          	auipc	ra,0x0
    800016be:	9a2080e7          	jalr	-1630(ra) # 8000105c <walkaddr>
    800016c2:	cd01                	beqz	a0,800016da <copyout+0x72>
    800016c4:	418904b3          	sub	s1,s2,s8
    800016c8:	94d6                	add	s1,s1,s5
    800016ca:	fc99f3e3          	bgeu	s3,s1,80001690 <copyout+0x28>
    800016ce:	84ce                	mv	s1,s3
    800016d0:	b7c1                	j	80001690 <copyout+0x28>
    800016d2:	4501                	li	a0,0
    800016d4:	a021                	j	800016dc <copyout+0x74>
    800016d6:	4501                	li	a0,0
    800016d8:	8082                	ret
    800016da:	557d                	li	a0,-1
    800016dc:	60a6                	ld	ra,72(sp)
    800016de:	6406                	ld	s0,64(sp)
    800016e0:	74e2                	ld	s1,56(sp)
    800016e2:	7942                	ld	s2,48(sp)
    800016e4:	79a2                	ld	s3,40(sp)
    800016e6:	7a02                	ld	s4,32(sp)
    800016e8:	6ae2                	ld	s5,24(sp)
    800016ea:	6b42                	ld	s6,16(sp)
    800016ec:	6ba2                	ld	s7,8(sp)
    800016ee:	6c02                	ld	s8,0(sp)
    800016f0:	6161                	addi	sp,sp,80
    800016f2:	8082                	ret

00000000800016f4 <copyin>:
    800016f4:	caa5                	beqz	a3,80001764 <copyin+0x70>
    800016f6:	715d                	addi	sp,sp,-80
    800016f8:	e486                	sd	ra,72(sp)
    800016fa:	e0a2                	sd	s0,64(sp)
    800016fc:	fc26                	sd	s1,56(sp)
    800016fe:	f84a                	sd	s2,48(sp)
    80001700:	f44e                	sd	s3,40(sp)
    80001702:	f052                	sd	s4,32(sp)
    80001704:	ec56                	sd	s5,24(sp)
    80001706:	e85a                	sd	s6,16(sp)
    80001708:	e45e                	sd	s7,8(sp)
    8000170a:	e062                	sd	s8,0(sp)
    8000170c:	0880                	addi	s0,sp,80
    8000170e:	8b2a                	mv	s6,a0
    80001710:	8a2e                	mv	s4,a1
    80001712:	8c32                	mv	s8,a2
    80001714:	89b6                	mv	s3,a3
    80001716:	7bfd                	lui	s7,0xfffff
    80001718:	6a85                	lui	s5,0x1
    8000171a:	a01d                	j	80001740 <copyin+0x4c>
    8000171c:	018505b3          	add	a1,a0,s8
    80001720:	0004861b          	sext.w	a2,s1
    80001724:	412585b3          	sub	a1,a1,s2
    80001728:	8552                	mv	a0,s4
    8000172a:	fffff097          	auipc	ra,0xfffff
    8000172e:	604080e7          	jalr	1540(ra) # 80000d2e <memmove>
    80001732:	409989b3          	sub	s3,s3,s1
    80001736:	9a26                	add	s4,s4,s1
    80001738:	01590c33          	add	s8,s2,s5
    8000173c:	02098263          	beqz	s3,80001760 <copyin+0x6c>
    80001740:	017c7933          	and	s2,s8,s7
    80001744:	85ca                	mv	a1,s2
    80001746:	855a                	mv	a0,s6
    80001748:	00000097          	auipc	ra,0x0
    8000174c:	914080e7          	jalr	-1772(ra) # 8000105c <walkaddr>
    80001750:	cd01                	beqz	a0,80001768 <copyin+0x74>
    80001752:	418904b3          	sub	s1,s2,s8
    80001756:	94d6                	add	s1,s1,s5
    80001758:	fc99f2e3          	bgeu	s3,s1,8000171c <copyin+0x28>
    8000175c:	84ce                	mv	s1,s3
    8000175e:	bf7d                	j	8000171c <copyin+0x28>
    80001760:	4501                	li	a0,0
    80001762:	a021                	j	8000176a <copyin+0x76>
    80001764:	4501                	li	a0,0
    80001766:	8082                	ret
    80001768:	557d                	li	a0,-1
    8000176a:	60a6                	ld	ra,72(sp)
    8000176c:	6406                	ld	s0,64(sp)
    8000176e:	74e2                	ld	s1,56(sp)
    80001770:	7942                	ld	s2,48(sp)
    80001772:	79a2                	ld	s3,40(sp)
    80001774:	7a02                	ld	s4,32(sp)
    80001776:	6ae2                	ld	s5,24(sp)
    80001778:	6b42                	ld	s6,16(sp)
    8000177a:	6ba2                	ld	s7,8(sp)
    8000177c:	6c02                	ld	s8,0(sp)
    8000177e:	6161                	addi	sp,sp,80
    80001780:	8082                	ret

0000000080001782 <copyinstr>:
    80001782:	c6c5                	beqz	a3,8000182a <copyinstr+0xa8>
    80001784:	715d                	addi	sp,sp,-80
    80001786:	e486                	sd	ra,72(sp)
    80001788:	e0a2                	sd	s0,64(sp)
    8000178a:	fc26                	sd	s1,56(sp)
    8000178c:	f84a                	sd	s2,48(sp)
    8000178e:	f44e                	sd	s3,40(sp)
    80001790:	f052                	sd	s4,32(sp)
    80001792:	ec56                	sd	s5,24(sp)
    80001794:	e85a                	sd	s6,16(sp)
    80001796:	e45e                	sd	s7,8(sp)
    80001798:	0880                	addi	s0,sp,80
    8000179a:	8a2a                	mv	s4,a0
    8000179c:	8b2e                	mv	s6,a1
    8000179e:	8bb2                	mv	s7,a2
    800017a0:	84b6                	mv	s1,a3
    800017a2:	7afd                	lui	s5,0xfffff
    800017a4:	6985                	lui	s3,0x1
    800017a6:	a035                	j	800017d2 <copyinstr+0x50>
    800017a8:	00078023          	sb	zero,0(a5) # 1000 <_entry-0x7ffff000>
    800017ac:	4785                	li	a5,1
    800017ae:	0017b793          	seqz	a5,a5
    800017b2:	40f00533          	neg	a0,a5
    800017b6:	60a6                	ld	ra,72(sp)
    800017b8:	6406                	ld	s0,64(sp)
    800017ba:	74e2                	ld	s1,56(sp)
    800017bc:	7942                	ld	s2,48(sp)
    800017be:	79a2                	ld	s3,40(sp)
    800017c0:	7a02                	ld	s4,32(sp)
    800017c2:	6ae2                	ld	s5,24(sp)
    800017c4:	6b42                	ld	s6,16(sp)
    800017c6:	6ba2                	ld	s7,8(sp)
    800017c8:	6161                	addi	sp,sp,80
    800017ca:	8082                	ret
    800017cc:	01390bb3          	add	s7,s2,s3
    800017d0:	c8a9                	beqz	s1,80001822 <copyinstr+0xa0>
    800017d2:	015bf933          	and	s2,s7,s5
    800017d6:	85ca                	mv	a1,s2
    800017d8:	8552                	mv	a0,s4
    800017da:	00000097          	auipc	ra,0x0
    800017de:	882080e7          	jalr	-1918(ra) # 8000105c <walkaddr>
    800017e2:	c131                	beqz	a0,80001826 <copyinstr+0xa4>
    800017e4:	41790833          	sub	a6,s2,s7
    800017e8:	984e                	add	a6,a6,s3
    800017ea:	0104f363          	bgeu	s1,a6,800017f0 <copyinstr+0x6e>
    800017ee:	8826                	mv	a6,s1
    800017f0:	955e                	add	a0,a0,s7
    800017f2:	41250533          	sub	a0,a0,s2
    800017f6:	fc080be3          	beqz	a6,800017cc <copyinstr+0x4a>
    800017fa:	985a                	add	a6,a6,s6
    800017fc:	87da                	mv	a5,s6
    800017fe:	41650633          	sub	a2,a0,s6
    80001802:	14fd                	addi	s1,s1,-1
    80001804:	9b26                	add	s6,s6,s1
    80001806:	00f60733          	add	a4,a2,a5
    8000180a:	00074703          	lbu	a4,0(a4)
    8000180e:	df49                	beqz	a4,800017a8 <copyinstr+0x26>
    80001810:	00e78023          	sb	a4,0(a5)
    80001814:	40fb04b3          	sub	s1,s6,a5
    80001818:	0785                	addi	a5,a5,1
    8000181a:	ff0796e3          	bne	a5,a6,80001806 <copyinstr+0x84>
    8000181e:	8b42                	mv	s6,a6
    80001820:	b775                	j	800017cc <copyinstr+0x4a>
    80001822:	4781                	li	a5,0
    80001824:	b769                	j	800017ae <copyinstr+0x2c>
    80001826:	557d                	li	a0,-1
    80001828:	b779                	j	800017b6 <copyinstr+0x34>
    8000182a:	4781                	li	a5,0
    8000182c:	0017b793          	seqz	a5,a5
    80001830:	40f00533          	neg	a0,a5
    80001834:	8082                	ret

0000000080001836 <proc_mapstacks>:

// Allocate a page for each process's kernel stack.
// Map it high in memory, followed by an invalid
// guard page.
void proc_mapstacks(pagetable_t kpgtbl)
{
    80001836:	7139                	addi	sp,sp,-64
    80001838:	fc06                	sd	ra,56(sp)
    8000183a:	f822                	sd	s0,48(sp)
    8000183c:	f426                	sd	s1,40(sp)
    8000183e:	f04a                	sd	s2,32(sp)
    80001840:	ec4e                	sd	s3,24(sp)
    80001842:	e852                	sd	s4,16(sp)
    80001844:	e456                	sd	s5,8(sp)
    80001846:	e05a                	sd	s6,0(sp)
    80001848:	0080                	addi	s0,sp,64
    8000184a:	89aa                	mv	s3,a0
  struct proc *p;

  for (p = proc; p < &proc[NPROC]; p++)
    8000184c:	0000f497          	auipc	s1,0xf
    80001850:	74448493          	addi	s1,s1,1860 # 80010f90 <proc>
  {
    char *pa = kalloc();
    if (pa == 0)
      panic("kalloc");
    uint64 va = KSTACK((int)(p - proc));
    80001854:	8b26                	mv	s6,s1
    80001856:	00006a97          	auipc	s5,0x6
    8000185a:	7aaa8a93          	addi	s5,s5,1962 # 80008000 <etext>
    8000185e:	04000937          	lui	s2,0x4000
    80001862:	197d                	addi	s2,s2,-1
    80001864:	0932                	slli	s2,s2,0xc
  for (p = proc; p < &proc[NPROC]; p++)
    80001866:	00016a17          	auipc	s4,0x16
    8000186a:	52aa0a13          	addi	s4,s4,1322 # 80017d90 <tickslock>
    char *pa = kalloc();
    8000186e:	fffff097          	auipc	ra,0xfffff
    80001872:	278080e7          	jalr	632(ra) # 80000ae6 <kalloc>
    80001876:	862a                	mv	a2,a0
    if (pa == 0)
    80001878:	c131                	beqz	a0,800018bc <proc_mapstacks+0x86>
    uint64 va = KSTACK((int)(p - proc));
    8000187a:	416485b3          	sub	a1,s1,s6
    8000187e:	858d                	srai	a1,a1,0x3
    80001880:	000ab783          	ld	a5,0(s5)
    80001884:	02f585b3          	mul	a1,a1,a5
    80001888:	2585                	addiw	a1,a1,1
    8000188a:	00d5959b          	slliw	a1,a1,0xd
    kvmmap(kpgtbl, va, (uint64)pa, PGSIZE, PTE_R | PTE_W);
    8000188e:	4719                	li	a4,6
    80001890:	6685                	lui	a3,0x1
    80001892:	40b905b3          	sub	a1,s2,a1
    80001896:	854e                	mv	a0,s3
    80001898:	00000097          	auipc	ra,0x0
    8000189c:	8a6080e7          	jalr	-1882(ra) # 8000113e <kvmmap>
  for (p = proc; p < &proc[NPROC]; p++)
    800018a0:	1b848493          	addi	s1,s1,440
    800018a4:	fd4495e3          	bne	s1,s4,8000186e <proc_mapstacks+0x38>
  }
}
    800018a8:	70e2                	ld	ra,56(sp)
    800018aa:	7442                	ld	s0,48(sp)
    800018ac:	74a2                	ld	s1,40(sp)
    800018ae:	7902                	ld	s2,32(sp)
    800018b0:	69e2                	ld	s3,24(sp)
    800018b2:	6a42                	ld	s4,16(sp)
    800018b4:	6aa2                	ld	s5,8(sp)
    800018b6:	6b02                	ld	s6,0(sp)
    800018b8:	6121                	addi	sp,sp,64
    800018ba:	8082                	ret
      panic("kalloc");
    800018bc:	00007517          	auipc	a0,0x7
    800018c0:	91c50513          	addi	a0,a0,-1764 # 800081d8 <digits+0x198>
    800018c4:	fffff097          	auipc	ra,0xfffff
    800018c8:	c7a080e7          	jalr	-902(ra) # 8000053e <panic>

00000000800018cc <procinit>:

// initialize the proc table.
void procinit(void)
{
    800018cc:	7139                	addi	sp,sp,-64
    800018ce:	fc06                	sd	ra,56(sp)
    800018d0:	f822                	sd	s0,48(sp)
    800018d2:	f426                	sd	s1,40(sp)
    800018d4:	f04a                	sd	s2,32(sp)
    800018d6:	ec4e                	sd	s3,24(sp)
    800018d8:	e852                	sd	s4,16(sp)
    800018da:	e456                	sd	s5,8(sp)
    800018dc:	e05a                	sd	s6,0(sp)
    800018de:	0080                	addi	s0,sp,64
  struct proc *p;

  initlock(&pid_lock, "nextpid");
    800018e0:	00007597          	auipc	a1,0x7
    800018e4:	90058593          	addi	a1,a1,-1792 # 800081e0 <digits+0x1a0>
    800018e8:	0000f517          	auipc	a0,0xf
    800018ec:	27850513          	addi	a0,a0,632 # 80010b60 <pid_lock>
    800018f0:	fffff097          	auipc	ra,0xfffff
    800018f4:	256080e7          	jalr	598(ra) # 80000b46 <initlock>
  initlock(&wait_lock, "wait_lock");
    800018f8:	00007597          	auipc	a1,0x7
    800018fc:	8f058593          	addi	a1,a1,-1808 # 800081e8 <digits+0x1a8>
    80001900:	0000f517          	auipc	a0,0xf
    80001904:	27850513          	addi	a0,a0,632 # 80010b78 <wait_lock>
    80001908:	fffff097          	auipc	ra,0xfffff
    8000190c:	23e080e7          	jalr	574(ra) # 80000b46 <initlock>
  for (p = proc; p < &proc[NPROC]; p++)
    80001910:	0000f497          	auipc	s1,0xf
    80001914:	68048493          	addi	s1,s1,1664 # 80010f90 <proc>
  {
    initlock(&p->lock, "proc");
    80001918:	00007b17          	auipc	s6,0x7
    8000191c:	8e0b0b13          	addi	s6,s6,-1824 # 800081f8 <digits+0x1b8>
    p->state = UNUSED;
    p->kstack = KSTACK((int)(p - proc));
    80001920:	8aa6                	mv	s5,s1
    80001922:	00006a17          	auipc	s4,0x6
    80001926:	6dea0a13          	addi	s4,s4,1758 # 80008000 <etext>
    8000192a:	04000937          	lui	s2,0x4000
    8000192e:	197d                	addi	s2,s2,-1
    80001930:	0932                	slli	s2,s2,0xc
  for (p = proc; p < &proc[NPROC]; p++)
    80001932:	00016997          	auipc	s3,0x16
    80001936:	45e98993          	addi	s3,s3,1118 # 80017d90 <tickslock>
    initlock(&p->lock, "proc");
    8000193a:	85da                	mv	a1,s6
    8000193c:	8526                	mv	a0,s1
    8000193e:	fffff097          	auipc	ra,0xfffff
    80001942:	208080e7          	jalr	520(ra) # 80000b46 <initlock>
    p->state = UNUSED;
    80001946:	0004ac23          	sw	zero,24(s1)
    p->kstack = KSTACK((int)(p - proc));
    8000194a:	415487b3          	sub	a5,s1,s5
    8000194e:	878d                	srai	a5,a5,0x3
    80001950:	000a3703          	ld	a4,0(s4)
    80001954:	02e787b3          	mul	a5,a5,a4
    80001958:	2785                	addiw	a5,a5,1
    8000195a:	00d7979b          	slliw	a5,a5,0xd
    8000195e:	40f907b3          	sub	a5,s2,a5
    80001962:	e0dc                	sd	a5,128(s1)
  for (p = proc; p < &proc[NPROC]; p++)
    80001964:	1b848493          	addi	s1,s1,440
    80001968:	fd3499e3          	bne	s1,s3,8000193a <procinit+0x6e>
  }
}
    8000196c:	70e2                	ld	ra,56(sp)
    8000196e:	7442                	ld	s0,48(sp)
    80001970:	74a2                	ld	s1,40(sp)
    80001972:	7902                	ld	s2,32(sp)
    80001974:	69e2                	ld	s3,24(sp)
    80001976:	6a42                	ld	s4,16(sp)
    80001978:	6aa2                	ld	s5,8(sp)
    8000197a:	6b02                	ld	s6,0(sp)
    8000197c:	6121                	addi	sp,sp,64
    8000197e:	8082                	ret

0000000080001980 <cpuid>:

// Must be called with interrupts disabled,
// to prevent race with process being moved
// to a different CPU.
int cpuid()
{
    80001980:	1141                	addi	sp,sp,-16
    80001982:	e422                	sd	s0,8(sp)
    80001984:	0800                	addi	s0,sp,16
// this core's hartid (core number), the index into cpus[].
static inline uint64
r_tp()
{
  uint64 x;
  asm volatile("mv %0, tp" : "=r" (x) );
    80001986:	8512                	mv	a0,tp
  int id = r_tp();
  return id;
}
    80001988:	2501                	sext.w	a0,a0
    8000198a:	6422                	ld	s0,8(sp)
    8000198c:	0141                	addi	sp,sp,16
    8000198e:	8082                	ret

0000000080001990 <mycpu>:

// Return this CPU's cpu struct.
// Interrupts must be disabled.
struct cpu *
mycpu(void)
{
    80001990:	1141                	addi	sp,sp,-16
    80001992:	e422                	sd	s0,8(sp)
    80001994:	0800                	addi	s0,sp,16
    80001996:	8792                	mv	a5,tp
  int id = cpuid();
  struct cpu *c = &cpus[id];
    80001998:	2781                	sext.w	a5,a5
    8000199a:	079e                	slli	a5,a5,0x7
  return c;
}
    8000199c:	0000f517          	auipc	a0,0xf
    800019a0:	1f450513          	addi	a0,a0,500 # 80010b90 <cpus>
    800019a4:	953e                	add	a0,a0,a5
    800019a6:	6422                	ld	s0,8(sp)
    800019a8:	0141                	addi	sp,sp,16
    800019aa:	8082                	ret

00000000800019ac <myproc>:

// Return the current struct proc *, or zero if none.
struct proc *
myproc(void)
{
    800019ac:	1101                	addi	sp,sp,-32
    800019ae:	ec06                	sd	ra,24(sp)
    800019b0:	e822                	sd	s0,16(sp)
    800019b2:	e426                	sd	s1,8(sp)
    800019b4:	1000                	addi	s0,sp,32
  push_off();
    800019b6:	fffff097          	auipc	ra,0xfffff
    800019ba:	1d4080e7          	jalr	468(ra) # 80000b8a <push_off>
    800019be:	8792                	mv	a5,tp
  struct cpu *c = mycpu();
  struct proc *p = c->proc;
    800019c0:	2781                	sext.w	a5,a5
    800019c2:	079e                	slli	a5,a5,0x7
    800019c4:	0000f717          	auipc	a4,0xf
    800019c8:	19c70713          	addi	a4,a4,412 # 80010b60 <pid_lock>
    800019cc:	97ba                	add	a5,a5,a4
    800019ce:	7b84                	ld	s1,48(a5)
  pop_off();
    800019d0:	fffff097          	auipc	ra,0xfffff
    800019d4:	25a080e7          	jalr	602(ra) # 80000c2a <pop_off>
  return p;
}
    800019d8:	8526                	mv	a0,s1
    800019da:	60e2                	ld	ra,24(sp)
    800019dc:	6442                	ld	s0,16(sp)
    800019de:	64a2                	ld	s1,8(sp)
    800019e0:	6105                	addi	sp,sp,32
    800019e2:	8082                	ret

00000000800019e4 <forkret>:
}

// A fork child's very first scheduling by scheduler()
// will swtch to forkret.
void forkret(void)
{
    800019e4:	1141                	addi	sp,sp,-16
    800019e6:	e406                	sd	ra,8(sp)
    800019e8:	e022                	sd	s0,0(sp)
    800019ea:	0800                	addi	s0,sp,16
  static int first = 1;

  // Still holding p->lock from scheduler.
  release(&myproc()->lock);
    800019ec:	00000097          	auipc	ra,0x0
    800019f0:	fc0080e7          	jalr	-64(ra) # 800019ac <myproc>
    800019f4:	fffff097          	auipc	ra,0xfffff
    800019f8:	296080e7          	jalr	662(ra) # 80000c8a <release>

  if (first)
    800019fc:	00007797          	auipc	a5,0x7
    80001a00:	e747a783          	lw	a5,-396(a5) # 80008870 <first.1>
    80001a04:	eb89                	bnez	a5,80001a16 <forkret+0x32>
    // be run from main().
    first = 0;
    fsinit(ROOTDEV);
  }

  usertrapret();
    80001a06:	00001097          	auipc	ra,0x1
    80001a0a:	efc080e7          	jalr	-260(ra) # 80002902 <usertrapret>
}
    80001a0e:	60a2                	ld	ra,8(sp)
    80001a10:	6402                	ld	s0,0(sp)
    80001a12:	0141                	addi	sp,sp,16
    80001a14:	8082                	ret
    first = 0;
    80001a16:	00007797          	auipc	a5,0x7
    80001a1a:	e407ad23          	sw	zero,-422(a5) # 80008870 <first.1>
    fsinit(ROOTDEV);
    80001a1e:	4505                	li	a0,1
    80001a20:	00002097          	auipc	ra,0x2
    80001a24:	2ee080e7          	jalr	750(ra) # 80003d0e <fsinit>
    80001a28:	bff9                	j	80001a06 <forkret+0x22>

0000000080001a2a <allocpid>:
{
    80001a2a:	1101                	addi	sp,sp,-32
    80001a2c:	ec06                	sd	ra,24(sp)
    80001a2e:	e822                	sd	s0,16(sp)
    80001a30:	e426                	sd	s1,8(sp)
    80001a32:	e04a                	sd	s2,0(sp)
    80001a34:	1000                	addi	s0,sp,32
  acquire(&pid_lock);
    80001a36:	0000f917          	auipc	s2,0xf
    80001a3a:	12a90913          	addi	s2,s2,298 # 80010b60 <pid_lock>
    80001a3e:	854a                	mv	a0,s2
    80001a40:	fffff097          	auipc	ra,0xfffff
    80001a44:	196080e7          	jalr	406(ra) # 80000bd6 <acquire>
  pid = nextpid;
    80001a48:	00007797          	auipc	a5,0x7
    80001a4c:	e2c78793          	addi	a5,a5,-468 # 80008874 <nextpid>
    80001a50:	4384                	lw	s1,0(a5)
  nextpid = nextpid + 1;
    80001a52:	0014871b          	addiw	a4,s1,1
    80001a56:	c398                	sw	a4,0(a5)
  release(&pid_lock);
    80001a58:	854a                	mv	a0,s2
    80001a5a:	fffff097          	auipc	ra,0xfffff
    80001a5e:	230080e7          	jalr	560(ra) # 80000c8a <release>
}
    80001a62:	8526                	mv	a0,s1
    80001a64:	60e2                	ld	ra,24(sp)
    80001a66:	6442                	ld	s0,16(sp)
    80001a68:	64a2                	ld	s1,8(sp)
    80001a6a:	6902                	ld	s2,0(sp)
    80001a6c:	6105                	addi	sp,sp,32
    80001a6e:	8082                	ret

0000000080001a70 <proc_pagetable>:
{
    80001a70:	1101                	addi	sp,sp,-32
    80001a72:	ec06                	sd	ra,24(sp)
    80001a74:	e822                	sd	s0,16(sp)
    80001a76:	e426                	sd	s1,8(sp)
    80001a78:	e04a                	sd	s2,0(sp)
    80001a7a:	1000                	addi	s0,sp,32
    80001a7c:	892a                	mv	s2,a0
  pagetable = uvmcreate();
    80001a7e:	00000097          	auipc	ra,0x0
    80001a82:	8aa080e7          	jalr	-1878(ra) # 80001328 <uvmcreate>
    80001a86:	84aa                	mv	s1,a0
  if (pagetable == 0)
    80001a88:	c121                	beqz	a0,80001ac8 <proc_pagetable+0x58>
  if (mappages(pagetable, TRAMPOLINE, PGSIZE,
    80001a8a:	4729                	li	a4,10
    80001a8c:	00005697          	auipc	a3,0x5
    80001a90:	57468693          	addi	a3,a3,1396 # 80007000 <_trampoline>
    80001a94:	6605                	lui	a2,0x1
    80001a96:	040005b7          	lui	a1,0x4000
    80001a9a:	15fd                	addi	a1,a1,-1
    80001a9c:	05b2                	slli	a1,a1,0xc
    80001a9e:	fffff097          	auipc	ra,0xfffff
    80001aa2:	600080e7          	jalr	1536(ra) # 8000109e <mappages>
    80001aa6:	02054863          	bltz	a0,80001ad6 <proc_pagetable+0x66>
  if (mappages(pagetable, TRAPFRAME, PGSIZE,
    80001aaa:	4719                	li	a4,6
    80001aac:	09893683          	ld	a3,152(s2)
    80001ab0:	6605                	lui	a2,0x1
    80001ab2:	020005b7          	lui	a1,0x2000
    80001ab6:	15fd                	addi	a1,a1,-1
    80001ab8:	05b6                	slli	a1,a1,0xd
    80001aba:	8526                	mv	a0,s1
    80001abc:	fffff097          	auipc	ra,0xfffff
    80001ac0:	5e2080e7          	jalr	1506(ra) # 8000109e <mappages>
    80001ac4:	02054163          	bltz	a0,80001ae6 <proc_pagetable+0x76>
}
    80001ac8:	8526                	mv	a0,s1
    80001aca:	60e2                	ld	ra,24(sp)
    80001acc:	6442                	ld	s0,16(sp)
    80001ace:	64a2                	ld	s1,8(sp)
    80001ad0:	6902                	ld	s2,0(sp)
    80001ad2:	6105                	addi	sp,sp,32
    80001ad4:	8082                	ret
    uvmfree(pagetable, 0);
    80001ad6:	4581                	li	a1,0
    80001ad8:	8526                	mv	a0,s1
    80001ada:	00000097          	auipc	ra,0x0
    80001ade:	a52080e7          	jalr	-1454(ra) # 8000152c <uvmfree>
    return 0;
    80001ae2:	4481                	li	s1,0
    80001ae4:	b7d5                	j	80001ac8 <proc_pagetable+0x58>
    uvmunmap(pagetable, TRAMPOLINE, 1, 0);
    80001ae6:	4681                	li	a3,0
    80001ae8:	4605                	li	a2,1
    80001aea:	040005b7          	lui	a1,0x4000
    80001aee:	15fd                	addi	a1,a1,-1
    80001af0:	05b2                	slli	a1,a1,0xc
    80001af2:	8526                	mv	a0,s1
    80001af4:	fffff097          	auipc	ra,0xfffff
    80001af8:	770080e7          	jalr	1904(ra) # 80001264 <uvmunmap>
    uvmfree(pagetable, 0);
    80001afc:	4581                	li	a1,0
    80001afe:	8526                	mv	a0,s1
    80001b00:	00000097          	auipc	ra,0x0
    80001b04:	a2c080e7          	jalr	-1492(ra) # 8000152c <uvmfree>
    return 0;
    80001b08:	4481                	li	s1,0
    80001b0a:	bf7d                	j	80001ac8 <proc_pagetable+0x58>

0000000080001b0c <proc_freepagetable>:
{
    80001b0c:	1101                	addi	sp,sp,-32
    80001b0e:	ec06                	sd	ra,24(sp)
    80001b10:	e822                	sd	s0,16(sp)
    80001b12:	e426                	sd	s1,8(sp)
    80001b14:	e04a                	sd	s2,0(sp)
    80001b16:	1000                	addi	s0,sp,32
    80001b18:	84aa                	mv	s1,a0
    80001b1a:	892e                	mv	s2,a1
  uvmunmap(pagetable, TRAMPOLINE, 1, 0);
    80001b1c:	4681                	li	a3,0
    80001b1e:	4605                	li	a2,1
    80001b20:	040005b7          	lui	a1,0x4000
    80001b24:	15fd                	addi	a1,a1,-1
    80001b26:	05b2                	slli	a1,a1,0xc
    80001b28:	fffff097          	auipc	ra,0xfffff
    80001b2c:	73c080e7          	jalr	1852(ra) # 80001264 <uvmunmap>
  uvmunmap(pagetable, TRAPFRAME, 1, 0);
    80001b30:	4681                	li	a3,0
    80001b32:	4605                	li	a2,1
    80001b34:	020005b7          	lui	a1,0x2000
    80001b38:	15fd                	addi	a1,a1,-1
    80001b3a:	05b6                	slli	a1,a1,0xd
    80001b3c:	8526                	mv	a0,s1
    80001b3e:	fffff097          	auipc	ra,0xfffff
    80001b42:	726080e7          	jalr	1830(ra) # 80001264 <uvmunmap>
  uvmfree(pagetable, sz);
    80001b46:	85ca                	mv	a1,s2
    80001b48:	8526                	mv	a0,s1
    80001b4a:	00000097          	auipc	ra,0x0
    80001b4e:	9e2080e7          	jalr	-1566(ra) # 8000152c <uvmfree>
}
    80001b52:	60e2                	ld	ra,24(sp)
    80001b54:	6442                	ld	s0,16(sp)
    80001b56:	64a2                	ld	s1,8(sp)
    80001b58:	6902                	ld	s2,0(sp)
    80001b5a:	6105                	addi	sp,sp,32
    80001b5c:	8082                	ret

0000000080001b5e <freeproc>:
{
    80001b5e:	1101                	addi	sp,sp,-32
    80001b60:	ec06                	sd	ra,24(sp)
    80001b62:	e822                	sd	s0,16(sp)
    80001b64:	e426                	sd	s1,8(sp)
    80001b66:	1000                	addi	s0,sp,32
    80001b68:	84aa                	mv	s1,a0
  if (p->trapframe)
    80001b6a:	6d48                	ld	a0,152(a0)
    80001b6c:	c509                	beqz	a0,80001b76 <freeproc+0x18>
    kfree((void *)p->trapframe);
    80001b6e:	fffff097          	auipc	ra,0xfffff
    80001b72:	e7c080e7          	jalr	-388(ra) # 800009ea <kfree>
  p->trapframe = 0;
    80001b76:	0804bc23          	sd	zero,152(s1)
  if (p->pagetable)
    80001b7a:	68c8                	ld	a0,144(s1)
    80001b7c:	c511                	beqz	a0,80001b88 <freeproc+0x2a>
    proc_freepagetable(p->pagetable, p->sz);
    80001b7e:	64cc                	ld	a1,136(s1)
    80001b80:	00000097          	auipc	ra,0x0
    80001b84:	f8c080e7          	jalr	-116(ra) # 80001b0c <proc_freepagetable>
  p->pagetable = 0;
    80001b88:	0804b823          	sd	zero,144(s1)
  p->sz = 0;
    80001b8c:	0804b423          	sd	zero,136(s1)
  p->pid = 0;
    80001b90:	0204a823          	sw	zero,48(s1)
  p->parent = 0;
    80001b94:	0604bc23          	sd	zero,120(s1)
  p->name[0] = 0;
    80001b98:	18048c23          	sb	zero,408(s1)
  p->chan = 0;
    80001b9c:	0204b023          	sd	zero,32(s1)
  p->killed = 0;
    80001ba0:	0204a423          	sw	zero,40(s1)
  p->xstate = 0;
    80001ba4:	0204a623          	sw	zero,44(s1)
  p->state = UNUSED;
    80001ba8:	0004ac23          	sw	zero,24(s1)
}
    80001bac:	60e2                	ld	ra,24(sp)
    80001bae:	6442                	ld	s0,16(sp)
    80001bb0:	64a2                	ld	s1,8(sp)
    80001bb2:	6105                	addi	sp,sp,32
    80001bb4:	8082                	ret

0000000080001bb6 <allocproc>:
{
    80001bb6:	1101                	addi	sp,sp,-32
    80001bb8:	ec06                	sd	ra,24(sp)
    80001bba:	e822                	sd	s0,16(sp)
    80001bbc:	e426                	sd	s1,8(sp)
    80001bbe:	e04a                	sd	s2,0(sp)
    80001bc0:	1000                	addi	s0,sp,32
  for (p = proc; p < &proc[NPROC]; p++)
    80001bc2:	0000f497          	auipc	s1,0xf
    80001bc6:	3ce48493          	addi	s1,s1,974 # 80010f90 <proc>
    80001bca:	00016917          	auipc	s2,0x16
    80001bce:	1c690913          	addi	s2,s2,454 # 80017d90 <tickslock>
    acquire(&p->lock);
    80001bd2:	8526                	mv	a0,s1
    80001bd4:	fffff097          	auipc	ra,0xfffff
    80001bd8:	002080e7          	jalr	2(ra) # 80000bd6 <acquire>
    if (p->state == UNUSED)
    80001bdc:	4c9c                	lw	a5,24(s1)
    80001bde:	cf81                	beqz	a5,80001bf6 <allocproc+0x40>
      release(&p->lock);
    80001be0:	8526                	mv	a0,s1
    80001be2:	fffff097          	auipc	ra,0xfffff
    80001be6:	0a8080e7          	jalr	168(ra) # 80000c8a <release>
  for (p = proc; p < &proc[NPROC]; p++)
    80001bea:	1b848493          	addi	s1,s1,440
    80001bee:	ff2492e3          	bne	s1,s2,80001bd2 <allocproc+0x1c>
  return 0;
    80001bf2:	4481                	li	s1,0
    80001bf4:	a069                	j	80001c7e <allocproc+0xc8>
  p->pid = allocpid();
    80001bf6:	00000097          	auipc	ra,0x0
    80001bfa:	e34080e7          	jalr	-460(ra) # 80001a2a <allocpid>
    80001bfe:	d888                	sw	a0,48(s1)
  p->state = USED;
    80001c00:	4785                	li	a5,1
    80001c02:	cc9c                	sw	a5,24(s1)
  if ((p->trapframe = (struct trapframe *)kalloc()) == 0)
    80001c04:	fffff097          	auipc	ra,0xfffff
    80001c08:	ee2080e7          	jalr	-286(ra) # 80000ae6 <kalloc>
    80001c0c:	892a                	mv	s2,a0
    80001c0e:	ecc8                	sd	a0,152(s1)
    80001c10:	cd35                	beqz	a0,80001c8c <allocproc+0xd6>
  p->pagetable = proc_pagetable(p);
    80001c12:	8526                	mv	a0,s1
    80001c14:	00000097          	auipc	ra,0x0
    80001c18:	e5c080e7          	jalr	-420(ra) # 80001a70 <proc_pagetable>
    80001c1c:	892a                	mv	s2,a0
    80001c1e:	e8c8                	sd	a0,144(s1)
  if (p->pagetable == 0)
    80001c20:	c151                	beqz	a0,80001ca4 <allocproc+0xee>
  memset(&p->context, 0, sizeof(p->context));
    80001c22:	07000613          	li	a2,112
    80001c26:	4581                	li	a1,0
    80001c28:	0a048513          	addi	a0,s1,160
    80001c2c:	fffff097          	auipc	ra,0xfffff
    80001c30:	0a6080e7          	jalr	166(ra) # 80000cd2 <memset>
  p->context.ra = (uint64)forkret;
    80001c34:	00000797          	auipc	a5,0x0
    80001c38:	db078793          	addi	a5,a5,-592 # 800019e4 <forkret>
    80001c3c:	f0dc                	sd	a5,160(s1)
  p->context.sp = p->kstack + PGSIZE;
    80001c3e:	60dc                	ld	a5,128(s1)
    80001c40:	6705                	lui	a4,0x1
    80001c42:	97ba                	add	a5,a5,a4
    80001c44:	f4dc                	sd	a5,168(s1)
  p->rtime = 0;
    80001c46:	1a04a423          	sw	zero,424(s1)
  p->etime = 0;
    80001c4a:	1a04a823          	sw	zero,432(s1)
  p->ctime = ticks;
    80001c4e:	00007797          	auipc	a5,0x7
    80001c52:	ca27a783          	lw	a5,-862(a5) # 800088f0 <ticks>
    80001c56:	1af4a623          	sw	a5,428(s1)
  p->ticks = 0;
    80001c5a:	0204bc23          	sd	zero,56(s1)
  p->ishandler = 0;
    80001c5e:	0404b823          	sd	zero,80(s1)
  p->currentticks = 0;
    80001c62:	0404b023          	sd	zero,64(s1)
  p->funcadr = 0;
    80001c66:	0404b423          	sd	zero,72(s1)
  p->sliceticks = 0;
    80001c6a:	0604a223          	sw	zero,100(s1)
  p->queue = 0;
    80001c6e:	0604a023          	sw	zero,96(s1)
  p->flagforio = 0; // 0 for not waiting for io, 1 for waiting for io
    80001c72:	0604a623          	sw	zero,108(s1)
  p->slicetime = 1;
    80001c76:	4785                	li	a5,1
    80001c78:	d4bc                	sw	a5,104(s1)
  p->timeofwait = 0;
    80001c7a:	0604a823          	sw	zero,112(s1)
}
    80001c7e:	8526                	mv	a0,s1
    80001c80:	60e2                	ld	ra,24(sp)
    80001c82:	6442                	ld	s0,16(sp)
    80001c84:	64a2                	ld	s1,8(sp)
    80001c86:	6902                	ld	s2,0(sp)
    80001c88:	6105                	addi	sp,sp,32
    80001c8a:	8082                	ret
    freeproc(p);
    80001c8c:	8526                	mv	a0,s1
    80001c8e:	00000097          	auipc	ra,0x0
    80001c92:	ed0080e7          	jalr	-304(ra) # 80001b5e <freeproc>
    release(&p->lock);
    80001c96:	8526                	mv	a0,s1
    80001c98:	fffff097          	auipc	ra,0xfffff
    80001c9c:	ff2080e7          	jalr	-14(ra) # 80000c8a <release>
    return 0;
    80001ca0:	84ca                	mv	s1,s2
    80001ca2:	bff1                	j	80001c7e <allocproc+0xc8>
    freeproc(p);
    80001ca4:	8526                	mv	a0,s1
    80001ca6:	00000097          	auipc	ra,0x0
    80001caa:	eb8080e7          	jalr	-328(ra) # 80001b5e <freeproc>
    release(&p->lock);
    80001cae:	8526                	mv	a0,s1
    80001cb0:	fffff097          	auipc	ra,0xfffff
    80001cb4:	fda080e7          	jalr	-38(ra) # 80000c8a <release>
    return 0;
    80001cb8:	84ca                	mv	s1,s2
    80001cba:	b7d1                	j	80001c7e <allocproc+0xc8>

0000000080001cbc <userinit>:
{
    80001cbc:	1101                	addi	sp,sp,-32
    80001cbe:	ec06                	sd	ra,24(sp)
    80001cc0:	e822                	sd	s0,16(sp)
    80001cc2:	e426                	sd	s1,8(sp)
    80001cc4:	1000                	addi	s0,sp,32
  p = allocproc();
    80001cc6:	00000097          	auipc	ra,0x0
    80001cca:	ef0080e7          	jalr	-272(ra) # 80001bb6 <allocproc>
    80001cce:	84aa                	mv	s1,a0
  initproc = p;
    80001cd0:	00007797          	auipc	a5,0x7
    80001cd4:	c0a7bc23          	sd	a0,-1000(a5) # 800088e8 <initproc>
  uvmfirst(p->pagetable, initcode, sizeof(initcode));
    80001cd8:	03400613          	li	a2,52
    80001cdc:	00007597          	auipc	a1,0x7
    80001ce0:	ba458593          	addi	a1,a1,-1116 # 80008880 <initcode>
    80001ce4:	6948                	ld	a0,144(a0)
    80001ce6:	fffff097          	auipc	ra,0xfffff
    80001cea:	670080e7          	jalr	1648(ra) # 80001356 <uvmfirst>
  p->sz = PGSIZE;
    80001cee:	6785                	lui	a5,0x1
    80001cf0:	e4dc                	sd	a5,136(s1)
  p->trapframe->epc = 0;     // user program counter
    80001cf2:	6cd8                	ld	a4,152(s1)
    80001cf4:	00073c23          	sd	zero,24(a4) # 1018 <_entry-0x7fffefe8>
  p->trapframe->sp = PGSIZE; // user stack pointer
    80001cf8:	6cd8                	ld	a4,152(s1)
    80001cfa:	fb1c                	sd	a5,48(a4)
  safestrcpy(p->name, "initcode", sizeof(p->name));
    80001cfc:	4641                	li	a2,16
    80001cfe:	00006597          	auipc	a1,0x6
    80001d02:	50258593          	addi	a1,a1,1282 # 80008200 <digits+0x1c0>
    80001d06:	19848513          	addi	a0,s1,408
    80001d0a:	fffff097          	auipc	ra,0xfffff
    80001d0e:	112080e7          	jalr	274(ra) # 80000e1c <safestrcpy>
  p->cwd = namei("/");
    80001d12:	00006517          	auipc	a0,0x6
    80001d16:	4fe50513          	addi	a0,a0,1278 # 80008210 <digits+0x1d0>
    80001d1a:	00003097          	auipc	ra,0x3
    80001d1e:	a16080e7          	jalr	-1514(ra) # 80004730 <namei>
    80001d22:	18a4b823          	sd	a0,400(s1)
  p->state = RUNNABLE;
    80001d26:	478d                	li	a5,3
    80001d28:	cc9c                	sw	a5,24(s1)
  release(&p->lock);
    80001d2a:	8526                	mv	a0,s1
    80001d2c:	fffff097          	auipc	ra,0xfffff
    80001d30:	f5e080e7          	jalr	-162(ra) # 80000c8a <release>
}
    80001d34:	60e2                	ld	ra,24(sp)
    80001d36:	6442                	ld	s0,16(sp)
    80001d38:	64a2                	ld	s1,8(sp)
    80001d3a:	6105                	addi	sp,sp,32
    80001d3c:	8082                	ret

0000000080001d3e <growproc>:
{
    80001d3e:	1101                	addi	sp,sp,-32
    80001d40:	ec06                	sd	ra,24(sp)
    80001d42:	e822                	sd	s0,16(sp)
    80001d44:	e426                	sd	s1,8(sp)
    80001d46:	e04a                	sd	s2,0(sp)
    80001d48:	1000                	addi	s0,sp,32
    80001d4a:	892a                	mv	s2,a0
  struct proc *p = myproc();
    80001d4c:	00000097          	auipc	ra,0x0
    80001d50:	c60080e7          	jalr	-928(ra) # 800019ac <myproc>
    80001d54:	84aa                	mv	s1,a0
  sz = p->sz;
    80001d56:	654c                	ld	a1,136(a0)
  if (n > 0)
    80001d58:	01204c63          	bgtz	s2,80001d70 <growproc+0x32>
  else if (n < 0)
    80001d5c:	02094663          	bltz	s2,80001d88 <growproc+0x4a>
  p->sz = sz;
    80001d60:	e4cc                	sd	a1,136(s1)
  return 0;
    80001d62:	4501                	li	a0,0
}
    80001d64:	60e2                	ld	ra,24(sp)
    80001d66:	6442                	ld	s0,16(sp)
    80001d68:	64a2                	ld	s1,8(sp)
    80001d6a:	6902                	ld	s2,0(sp)
    80001d6c:	6105                	addi	sp,sp,32
    80001d6e:	8082                	ret
    if ((sz = uvmalloc(p->pagetable, sz, sz + n, PTE_W)) == 0)
    80001d70:	4691                	li	a3,4
    80001d72:	00b90633          	add	a2,s2,a1
    80001d76:	6948                	ld	a0,144(a0)
    80001d78:	fffff097          	auipc	ra,0xfffff
    80001d7c:	698080e7          	jalr	1688(ra) # 80001410 <uvmalloc>
    80001d80:	85aa                	mv	a1,a0
    80001d82:	fd79                	bnez	a0,80001d60 <growproc+0x22>
      return -1;
    80001d84:	557d                	li	a0,-1
    80001d86:	bff9                	j	80001d64 <growproc+0x26>
    sz = uvmdealloc(p->pagetable, sz, sz + n);
    80001d88:	00b90633          	add	a2,s2,a1
    80001d8c:	6948                	ld	a0,144(a0)
    80001d8e:	fffff097          	auipc	ra,0xfffff
    80001d92:	63a080e7          	jalr	1594(ra) # 800013c8 <uvmdealloc>
    80001d96:	85aa                	mv	a1,a0
    80001d98:	b7e1                	j	80001d60 <growproc+0x22>

0000000080001d9a <fork>:
{
    80001d9a:	7139                	addi	sp,sp,-64
    80001d9c:	fc06                	sd	ra,56(sp)
    80001d9e:	f822                	sd	s0,48(sp)
    80001da0:	f426                	sd	s1,40(sp)
    80001da2:	f04a                	sd	s2,32(sp)
    80001da4:	ec4e                	sd	s3,24(sp)
    80001da6:	e852                	sd	s4,16(sp)
    80001da8:	e456                	sd	s5,8(sp)
    80001daa:	0080                	addi	s0,sp,64
  struct proc *p = myproc();
    80001dac:	00000097          	auipc	ra,0x0
    80001db0:	c00080e7          	jalr	-1024(ra) # 800019ac <myproc>
    80001db4:	8aaa                	mv	s5,a0
  if ((np = allocproc()) == 0)
    80001db6:	00000097          	auipc	ra,0x0
    80001dba:	e00080e7          	jalr	-512(ra) # 80001bb6 <allocproc>
    80001dbe:	10050c63          	beqz	a0,80001ed6 <fork+0x13c>
    80001dc2:	8a2a                	mv	s4,a0
  if (uvmcopy(p->pagetable, np->pagetable, p->sz) < 0)
    80001dc4:	088ab603          	ld	a2,136(s5)
    80001dc8:	694c                	ld	a1,144(a0)
    80001dca:	090ab503          	ld	a0,144(s5)
    80001dce:	fffff097          	auipc	ra,0xfffff
    80001dd2:	796080e7          	jalr	1942(ra) # 80001564 <uvmcopy>
    80001dd6:	04054863          	bltz	a0,80001e26 <fork+0x8c>
  np->sz = p->sz;
    80001dda:	088ab783          	ld	a5,136(s5)
    80001dde:	08fa3423          	sd	a5,136(s4)
  *(np->trapframe) = *(p->trapframe);
    80001de2:	098ab683          	ld	a3,152(s5)
    80001de6:	87b6                	mv	a5,a3
    80001de8:	098a3703          	ld	a4,152(s4)
    80001dec:	12068693          	addi	a3,a3,288
    80001df0:	0007b803          	ld	a6,0(a5) # 1000 <_entry-0x7ffff000>
    80001df4:	6788                	ld	a0,8(a5)
    80001df6:	6b8c                	ld	a1,16(a5)
    80001df8:	6f90                	ld	a2,24(a5)
    80001dfa:	01073023          	sd	a6,0(a4)
    80001dfe:	e708                	sd	a0,8(a4)
    80001e00:	eb0c                	sd	a1,16(a4)
    80001e02:	ef10                	sd	a2,24(a4)
    80001e04:	02078793          	addi	a5,a5,32
    80001e08:	02070713          	addi	a4,a4,32
    80001e0c:	fed792e3          	bne	a5,a3,80001df0 <fork+0x56>
  np->trapframe->a0 = 0;
    80001e10:	098a3783          	ld	a5,152(s4)
    80001e14:	0607b823          	sd	zero,112(a5)
  for (i = 0; i < NOFILE; i++)
    80001e18:	110a8493          	addi	s1,s5,272
    80001e1c:	110a0913          	addi	s2,s4,272
    80001e20:	190a8993          	addi	s3,s5,400
    80001e24:	a00d                	j	80001e46 <fork+0xac>
    freeproc(np);
    80001e26:	8552                	mv	a0,s4
    80001e28:	00000097          	auipc	ra,0x0
    80001e2c:	d36080e7          	jalr	-714(ra) # 80001b5e <freeproc>
    release(&np->lock);
    80001e30:	8552                	mv	a0,s4
    80001e32:	fffff097          	auipc	ra,0xfffff
    80001e36:	e58080e7          	jalr	-424(ra) # 80000c8a <release>
    return -1;
    80001e3a:	597d                	li	s2,-1
    80001e3c:	a059                	j	80001ec2 <fork+0x128>
  for (i = 0; i < NOFILE; i++)
    80001e3e:	04a1                	addi	s1,s1,8
    80001e40:	0921                	addi	s2,s2,8
    80001e42:	01348b63          	beq	s1,s3,80001e58 <fork+0xbe>
    if (p->ofile[i])
    80001e46:	6088                	ld	a0,0(s1)
    80001e48:	d97d                	beqz	a0,80001e3e <fork+0xa4>
      np->ofile[i] = filedup(p->ofile[i]);
    80001e4a:	00003097          	auipc	ra,0x3
    80001e4e:	f7c080e7          	jalr	-132(ra) # 80004dc6 <filedup>
    80001e52:	00a93023          	sd	a0,0(s2)
    80001e56:	b7e5                	j	80001e3e <fork+0xa4>
  np->cwd = idup(p->cwd);
    80001e58:	190ab503          	ld	a0,400(s5)
    80001e5c:	00002097          	auipc	ra,0x2
    80001e60:	0f0080e7          	jalr	240(ra) # 80003f4c <idup>
    80001e64:	18aa3823          	sd	a0,400(s4)
  safestrcpy(np->name, p->name, sizeof(p->name));
    80001e68:	4641                	li	a2,16
    80001e6a:	198a8593          	addi	a1,s5,408
    80001e6e:	198a0513          	addi	a0,s4,408
    80001e72:	fffff097          	auipc	ra,0xfffff
    80001e76:	faa080e7          	jalr	-86(ra) # 80000e1c <safestrcpy>
  pid = np->pid;
    80001e7a:	030a2903          	lw	s2,48(s4)
  release(&np->lock);
    80001e7e:	8552                	mv	a0,s4
    80001e80:	fffff097          	auipc	ra,0xfffff
    80001e84:	e0a080e7          	jalr	-502(ra) # 80000c8a <release>
  acquire(&wait_lock);
    80001e88:	0000f497          	auipc	s1,0xf
    80001e8c:	cf048493          	addi	s1,s1,-784 # 80010b78 <wait_lock>
    80001e90:	8526                	mv	a0,s1
    80001e92:	fffff097          	auipc	ra,0xfffff
    80001e96:	d44080e7          	jalr	-700(ra) # 80000bd6 <acquire>
  np->parent = p;
    80001e9a:	075a3c23          	sd	s5,120(s4)
  release(&wait_lock);
    80001e9e:	8526                	mv	a0,s1
    80001ea0:	fffff097          	auipc	ra,0xfffff
    80001ea4:	dea080e7          	jalr	-534(ra) # 80000c8a <release>
  acquire(&np->lock);
    80001ea8:	8552                	mv	a0,s4
    80001eaa:	fffff097          	auipc	ra,0xfffff
    80001eae:	d2c080e7          	jalr	-724(ra) # 80000bd6 <acquire>
  np->state = RUNNABLE;
    80001eb2:	478d                	li	a5,3
    80001eb4:	00fa2c23          	sw	a5,24(s4)
  release(&np->lock);
    80001eb8:	8552                	mv	a0,s4
    80001eba:	fffff097          	auipc	ra,0xfffff
    80001ebe:	dd0080e7          	jalr	-560(ra) # 80000c8a <release>
}
    80001ec2:	854a                	mv	a0,s2
    80001ec4:	70e2                	ld	ra,56(sp)
    80001ec6:	7442                	ld	s0,48(sp)
    80001ec8:	74a2                	ld	s1,40(sp)
    80001eca:	7902                	ld	s2,32(sp)
    80001ecc:	69e2                	ld	s3,24(sp)
    80001ece:	6a42                	ld	s4,16(sp)
    80001ed0:	6aa2                	ld	s5,8(sp)
    80001ed2:	6121                	addi	sp,sp,64
    80001ed4:	8082                	ret
    return -1;
    80001ed6:	597d                	li	s2,-1
    80001ed8:	b7ed                	j	80001ec2 <fork+0x128>

0000000080001eda <scheduler>:
{
    80001eda:	7139                	addi	sp,sp,-64
    80001edc:	fc06                	sd	ra,56(sp)
    80001ede:	f822                	sd	s0,48(sp)
    80001ee0:	f426                	sd	s1,40(sp)
    80001ee2:	f04a                	sd	s2,32(sp)
    80001ee4:	ec4e                	sd	s3,24(sp)
    80001ee6:	e852                	sd	s4,16(sp)
    80001ee8:	e456                	sd	s5,8(sp)
    80001eea:	e05a                	sd	s6,0(sp)
    80001eec:	0080                	addi	s0,sp,64
    80001eee:	8792                	mv	a5,tp
  int id = r_tp();
    80001ef0:	2781                	sext.w	a5,a5
  c->proc = 0;
    80001ef2:	00779693          	slli	a3,a5,0x7
    80001ef6:	0000f717          	auipc	a4,0xf
    80001efa:	c6a70713          	addi	a4,a4,-918 # 80010b60 <pid_lock>
    80001efe:	9736                	add	a4,a4,a3
    80001f00:	02073823          	sd	zero,48(a4)
      swtch(&c->context, &temp->context);
    80001f04:	0000f717          	auipc	a4,0xf
    80001f08:	c9470713          	addi	a4,a4,-876 # 80010b98 <cpus+0x8>
    80001f0c:	00e68b33          	add	s6,a3,a4
    int minqueue = 100;
    80001f10:	06400993          	li	s3,100
      if (p->state == RUNNABLE)
    80001f14:	448d                	li	s1,3
    for (p = proc; p < &proc[NPROC]; p++)
    80001f16:	00016917          	auipc	s2,0x16
    80001f1a:	e7a90913          	addi	s2,s2,-390 # 80017d90 <tickslock>
      c->proc = temp;
    80001f1e:	0000fa17          	auipc	s4,0xf
    80001f22:	c42a0a13          	addi	s4,s4,-958 # 80010b60 <pid_lock>
    80001f26:	9a36                	add	s4,s4,a3
    80001f28:	a045                	j	80001fc8 <scheduler+0xee>
    80001f2a:	0007069b          	sext.w	a3,a4
    for (p = proc; p < &proc[NPROC]; p++)
    80001f2e:	1b878793          	addi	a5,a5,440
    80001f32:	01278c63          	beq	a5,s2,80001f4a <scheduler+0x70>
      if (p->state == RUNNABLE)
    80001f36:	4f98                	lw	a4,24(a5)
    80001f38:	fe971be3          	bne	a4,s1,80001f2e <scheduler+0x54>
        if (p->queue < minqueue)
    80001f3c:	53b8                	lw	a4,96(a5)
    80001f3e:	0007061b          	sext.w	a2,a4
    80001f42:	fec6d4e3          	bge	a3,a2,80001f2a <scheduler+0x50>
    80001f46:	8736                	mv	a4,a3
    80001f48:	b7cd                	j	80001f2a <scheduler+0x50>
    for (p = proc; p < &proc[NPROC]; p++)
    80001f4a:	0000f797          	auipc	a5,0xf
    80001f4e:	04678793          	addi	a5,a5,70 # 80010f90 <proc>
    80001f52:	a029                	j	80001f5c <scheduler+0x82>
    80001f54:	1b878793          	addi	a5,a5,440
    80001f58:	07278863          	beq	a5,s2,80001fc8 <scheduler+0xee>
      if (p->state == RUNNABLE)
    80001f5c:	4f98                	lw	a4,24(a5)
    80001f5e:	fe971be3          	bne	a4,s1,80001f54 <scheduler+0x7a>
        if (p->queue == minqueue)
    80001f62:	53b8                	lw	a4,96(a5)
    80001f64:	fed718e3          	bne	a4,a3,80001f54 <scheduler+0x7a>
      for (p = proc; p < &proc[NPROC]; p++)
    80001f68:	0000fa97          	auipc	s5,0xf
    80001f6c:	028a8a93          	addi	s5,s5,40 # 80010f90 <proc>
        if (p->state == RUNNABLE && p->flagforio == 1 && p->queue == minqueue)
    80001f70:	4705                	li	a4,1
    80001f72:	a029                	j	80001f7c <scheduler+0xa2>
      for (p = proc; p < &proc[NPROC]; p++)
    80001f74:	1b8a8a93          	addi	s5,s5,440
    80001f78:	072a8463          	beq	s5,s2,80001fe0 <scheduler+0x106>
        if (p->state == RUNNABLE && p->flagforio == 1 && p->queue == minqueue)
    80001f7c:	018aa783          	lw	a5,24(s5)
    80001f80:	fe979ae3          	bne	a5,s1,80001f74 <scheduler+0x9a>
    80001f84:	06caa783          	lw	a5,108(s5)
    80001f88:	fee796e3          	bne	a5,a4,80001f74 <scheduler+0x9a>
    80001f8c:	060aa783          	lw	a5,96(s5)
    80001f90:	fed792e3          	bne	a5,a3,80001f74 <scheduler+0x9a>
      acquire(&temp->lock);
    80001f94:	8556                	mv	a0,s5
    80001f96:	fffff097          	auipc	ra,0xfffff
    80001f9a:	c40080e7          	jalr	-960(ra) # 80000bd6 <acquire>
      temp->state = RUNNING;
    80001f9e:	4791                	li	a5,4
    80001fa0:	00faac23          	sw	a5,24(s5)
      temp->timeofwait = 0;
    80001fa4:	060aa823          	sw	zero,112(s5)
      c->proc = temp;
    80001fa8:	035a3823          	sd	s5,48(s4)
      swtch(&c->context, &temp->context);
    80001fac:	0a0a8593          	addi	a1,s5,160
    80001fb0:	855a                	mv	a0,s6
    80001fb2:	00001097          	auipc	ra,0x1
    80001fb6:	8a6080e7          	jalr	-1882(ra) # 80002858 <swtch>
      c->proc = 0;
    80001fba:	020a3823          	sd	zero,48(s4)
      release(&temp->lock);
    80001fbe:	8556                	mv	a0,s5
    80001fc0:	fffff097          	auipc	ra,0xfffff
    80001fc4:	cca080e7          	jalr	-822(ra) # 80000c8a <release>
  asm volatile("csrr %0, sstatus" : "=r" (x) );
    80001fc8:	100027f3          	csrr	a5,sstatus
  w_sstatus(r_sstatus() | SSTATUS_SIE);
    80001fcc:	0027e793          	ori	a5,a5,2
  asm volatile("csrw sstatus, %0" : : "r" (x));
    80001fd0:	10079073          	csrw	sstatus,a5
    int minqueue = 100;
    80001fd4:	86ce                	mv	a3,s3
    for (p = proc; p < &proc[NPROC]; p++)
    80001fd6:	0000f797          	auipc	a5,0xf
    80001fda:	fba78793          	addi	a5,a5,-70 # 80010f90 <proc>
    80001fde:	bfa1                	j	80001f36 <scheduler+0x5c>
        int maxwtime = -1;
    80001fe0:	567d                	li	a2,-1
        for (p = proc; p < &proc[NPROC]; p++)
    80001fe2:	0000f797          	auipc	a5,0xf
    80001fe6:	fae78793          	addi	a5,a5,-82 # 80010f90 <proc>
    80001fea:	a029                	j	80001ff4 <scheduler+0x11a>
    80001fec:	1b878793          	addi	a5,a5,440
    80001ff0:	fb2782e3          	beq	a5,s2,80001f94 <scheduler+0xba>
          if (p->state == RUNNABLE && p->queue == minqueue)
    80001ff4:	4f98                	lw	a4,24(a5)
    80001ff6:	fe971be3          	bne	a4,s1,80001fec <scheduler+0x112>
    80001ffa:	53b8                	lw	a4,96(a5)
    80001ffc:	fed718e3          	bne	a4,a3,80001fec <scheduler+0x112>
            if (p->timeofwait > maxwtime)
    80002000:	5bb8                	lw	a4,112(a5)
    80002002:	fee655e3          	bge	a2,a4,80001fec <scheduler+0x112>
    80002006:	8abe                	mv	s5,a5
              maxwtime = p->timeofwait;
    80002008:	863a                	mv	a2,a4
    8000200a:	b7cd                	j	80001fec <scheduler+0x112>

000000008000200c <sched>:
{
    8000200c:	7179                	addi	sp,sp,-48
    8000200e:	f406                	sd	ra,40(sp)
    80002010:	f022                	sd	s0,32(sp)
    80002012:	ec26                	sd	s1,24(sp)
    80002014:	e84a                	sd	s2,16(sp)
    80002016:	e44e                	sd	s3,8(sp)
    80002018:	1800                	addi	s0,sp,48
  struct proc *p = myproc();
    8000201a:	00000097          	auipc	ra,0x0
    8000201e:	992080e7          	jalr	-1646(ra) # 800019ac <myproc>
    80002022:	84aa                	mv	s1,a0
  if (!holding(&p->lock))
    80002024:	fffff097          	auipc	ra,0xfffff
    80002028:	b38080e7          	jalr	-1224(ra) # 80000b5c <holding>
    8000202c:	c93d                	beqz	a0,800020a2 <sched+0x96>
  asm volatile("mv %0, tp" : "=r" (x) );
    8000202e:	8792                	mv	a5,tp
  if (mycpu()->noff != 1)
    80002030:	2781                	sext.w	a5,a5
    80002032:	079e                	slli	a5,a5,0x7
    80002034:	0000f717          	auipc	a4,0xf
    80002038:	b2c70713          	addi	a4,a4,-1236 # 80010b60 <pid_lock>
    8000203c:	97ba                	add	a5,a5,a4
    8000203e:	0a87a703          	lw	a4,168(a5)
    80002042:	4785                	li	a5,1
    80002044:	06f71763          	bne	a4,a5,800020b2 <sched+0xa6>
  if (p->state == RUNNING)
    80002048:	4c98                	lw	a4,24(s1)
    8000204a:	4791                	li	a5,4
    8000204c:	06f70b63          	beq	a4,a5,800020c2 <sched+0xb6>
  asm volatile("csrr %0, sstatus" : "=r" (x) );
    80002050:	100027f3          	csrr	a5,sstatus
  return (x & SSTATUS_SIE) != 0;
    80002054:	8b89                	andi	a5,a5,2
  if (intr_get())
    80002056:	efb5                	bnez	a5,800020d2 <sched+0xc6>
  asm volatile("mv %0, tp" : "=r" (x) );
    80002058:	8792                	mv	a5,tp
  intena = mycpu()->intena;
    8000205a:	0000f917          	auipc	s2,0xf
    8000205e:	b0690913          	addi	s2,s2,-1274 # 80010b60 <pid_lock>
    80002062:	2781                	sext.w	a5,a5
    80002064:	079e                	slli	a5,a5,0x7
    80002066:	97ca                	add	a5,a5,s2
    80002068:	0ac7a983          	lw	s3,172(a5)
    8000206c:	8792                	mv	a5,tp
  swtch(&p->context, &mycpu()->context);
    8000206e:	2781                	sext.w	a5,a5
    80002070:	079e                	slli	a5,a5,0x7
    80002072:	0000f597          	auipc	a1,0xf
    80002076:	b2658593          	addi	a1,a1,-1242 # 80010b98 <cpus+0x8>
    8000207a:	95be                	add	a1,a1,a5
    8000207c:	0a048513          	addi	a0,s1,160
    80002080:	00000097          	auipc	ra,0x0
    80002084:	7d8080e7          	jalr	2008(ra) # 80002858 <swtch>
    80002088:	8792                	mv	a5,tp
  mycpu()->intena = intena;
    8000208a:	2781                	sext.w	a5,a5
    8000208c:	079e                	slli	a5,a5,0x7
    8000208e:	97ca                	add	a5,a5,s2
    80002090:	0b37a623          	sw	s3,172(a5)
}
    80002094:	70a2                	ld	ra,40(sp)
    80002096:	7402                	ld	s0,32(sp)
    80002098:	64e2                	ld	s1,24(sp)
    8000209a:	6942                	ld	s2,16(sp)
    8000209c:	69a2                	ld	s3,8(sp)
    8000209e:	6145                	addi	sp,sp,48
    800020a0:	8082                	ret
    panic("sched p->lock");
    800020a2:	00006517          	auipc	a0,0x6
    800020a6:	17650513          	addi	a0,a0,374 # 80008218 <digits+0x1d8>
    800020aa:	ffffe097          	auipc	ra,0xffffe
    800020ae:	494080e7          	jalr	1172(ra) # 8000053e <panic>
    panic("sched locks");
    800020b2:	00006517          	auipc	a0,0x6
    800020b6:	17650513          	addi	a0,a0,374 # 80008228 <digits+0x1e8>
    800020ba:	ffffe097          	auipc	ra,0xffffe
    800020be:	484080e7          	jalr	1156(ra) # 8000053e <panic>
    panic("sched running");
    800020c2:	00006517          	auipc	a0,0x6
    800020c6:	17650513          	addi	a0,a0,374 # 80008238 <digits+0x1f8>
    800020ca:	ffffe097          	auipc	ra,0xffffe
    800020ce:	474080e7          	jalr	1140(ra) # 8000053e <panic>
    panic("sched interruptible");
    800020d2:	00006517          	auipc	a0,0x6
    800020d6:	17650513          	addi	a0,a0,374 # 80008248 <digits+0x208>
    800020da:	ffffe097          	auipc	ra,0xffffe
    800020de:	464080e7          	jalr	1124(ra) # 8000053e <panic>

00000000800020e2 <yield>:
{
    800020e2:	1101                	addi	sp,sp,-32
    800020e4:	ec06                	sd	ra,24(sp)
    800020e6:	e822                	sd	s0,16(sp)
    800020e8:	e426                	sd	s1,8(sp)
    800020ea:	1000                	addi	s0,sp,32
  struct proc *p = myproc();
    800020ec:	00000097          	auipc	ra,0x0
    800020f0:	8c0080e7          	jalr	-1856(ra) # 800019ac <myproc>
    800020f4:	84aa                	mv	s1,a0
  acquire(&p->lock);
    800020f6:	fffff097          	auipc	ra,0xfffff
    800020fa:	ae0080e7          	jalr	-1312(ra) # 80000bd6 <acquire>
  p->state = RUNNABLE;
    800020fe:	478d                	li	a5,3
    80002100:	cc9c                	sw	a5,24(s1)
  sched();
    80002102:	00000097          	auipc	ra,0x0
    80002106:	f0a080e7          	jalr	-246(ra) # 8000200c <sched>
  release(&p->lock);
    8000210a:	8526                	mv	a0,s1
    8000210c:	fffff097          	auipc	ra,0xfffff
    80002110:	b7e080e7          	jalr	-1154(ra) # 80000c8a <release>
}
    80002114:	60e2                	ld	ra,24(sp)
    80002116:	6442                	ld	s0,16(sp)
    80002118:	64a2                	ld	s1,8(sp)
    8000211a:	6105                	addi	sp,sp,32
    8000211c:	8082                	ret

000000008000211e <sleep>:

// Atomically release lock and sleep on chan.
// Reacquires lock when awakened.
void sleep(void *chan, struct spinlock *lk)
{
    8000211e:	7179                	addi	sp,sp,-48
    80002120:	f406                	sd	ra,40(sp)
    80002122:	f022                	sd	s0,32(sp)
    80002124:	ec26                	sd	s1,24(sp)
    80002126:	e84a                	sd	s2,16(sp)
    80002128:	e44e                	sd	s3,8(sp)
    8000212a:	1800                	addi	s0,sp,48
    8000212c:	89aa                	mv	s3,a0
    8000212e:	892e                	mv	s2,a1
  struct proc *p = myproc();
    80002130:	00000097          	auipc	ra,0x0
    80002134:	87c080e7          	jalr	-1924(ra) # 800019ac <myproc>
    80002138:	84aa                	mv	s1,a0
  // Once we hold p->lock, we can be
  // guaranteed that we won't miss any wakeup
  // (wakeup locks p->lock),
  // so it's okay to release lk.

  acquire(&p->lock); // DOC: sleeplock1
    8000213a:	fffff097          	auipc	ra,0xfffff
    8000213e:	a9c080e7          	jalr	-1380(ra) # 80000bd6 <acquire>
  release(lk);
    80002142:	854a                	mv	a0,s2
    80002144:	fffff097          	auipc	ra,0xfffff
    80002148:	b46080e7          	jalr	-1210(ra) # 80000c8a <release>

  // Go to sleep.
  p->chan = chan;
    8000214c:	0334b023          	sd	s3,32(s1)
  p->state = SLEEPING;
    80002150:	4789                	li	a5,2
    80002152:	cc9c                	sw	a5,24(s1)

  sched();
    80002154:	00000097          	auipc	ra,0x0
    80002158:	eb8080e7          	jalr	-328(ra) # 8000200c <sched>

  // Tidy up.
  p->chan = 0;
    8000215c:	0204b023          	sd	zero,32(s1)

  // Reacquire original lock.
  release(&p->lock);
    80002160:	8526                	mv	a0,s1
    80002162:	fffff097          	auipc	ra,0xfffff
    80002166:	b28080e7          	jalr	-1240(ra) # 80000c8a <release>
  acquire(lk);
    8000216a:	854a                	mv	a0,s2
    8000216c:	fffff097          	auipc	ra,0xfffff
    80002170:	a6a080e7          	jalr	-1430(ra) # 80000bd6 <acquire>
}
    80002174:	70a2                	ld	ra,40(sp)
    80002176:	7402                	ld	s0,32(sp)
    80002178:	64e2                	ld	s1,24(sp)
    8000217a:	6942                	ld	s2,16(sp)
    8000217c:	69a2                	ld	s3,8(sp)
    8000217e:	6145                	addi	sp,sp,48
    80002180:	8082                	ret

0000000080002182 <wakeup>:

// Wake up all processes sleeping on chan.
// Must be called without any p->lock.
void wakeup(void *chan)
{
    80002182:	7139                	addi	sp,sp,-64
    80002184:	fc06                	sd	ra,56(sp)
    80002186:	f822                	sd	s0,48(sp)
    80002188:	f426                	sd	s1,40(sp)
    8000218a:	f04a                	sd	s2,32(sp)
    8000218c:	ec4e                	sd	s3,24(sp)
    8000218e:	e852                	sd	s4,16(sp)
    80002190:	e456                	sd	s5,8(sp)
    80002192:	0080                	addi	s0,sp,64
    80002194:	8a2a                	mv	s4,a0
  struct proc *p;

  for (p = proc; p < &proc[NPROC]; p++)
    80002196:	0000f497          	auipc	s1,0xf
    8000219a:	dfa48493          	addi	s1,s1,-518 # 80010f90 <proc>
  {
    if (p != myproc())
    {
      acquire(&p->lock);
      if (p->state == SLEEPING && p->chan == chan)
    8000219e:	4989                	li	s3,2
      {
        p->state = RUNNABLE;
    800021a0:	4a8d                	li	s5,3
  for (p = proc; p < &proc[NPROC]; p++)
    800021a2:	00016917          	auipc	s2,0x16
    800021a6:	bee90913          	addi	s2,s2,-1042 # 80017d90 <tickslock>
    800021aa:	a811                	j	800021be <wakeup+0x3c>
      }
      release(&p->lock);
    800021ac:	8526                	mv	a0,s1
    800021ae:	fffff097          	auipc	ra,0xfffff
    800021b2:	adc080e7          	jalr	-1316(ra) # 80000c8a <release>
  for (p = proc; p < &proc[NPROC]; p++)
    800021b6:	1b848493          	addi	s1,s1,440
    800021ba:	03248663          	beq	s1,s2,800021e6 <wakeup+0x64>
    if (p != myproc())
    800021be:	fffff097          	auipc	ra,0xfffff
    800021c2:	7ee080e7          	jalr	2030(ra) # 800019ac <myproc>
    800021c6:	fea488e3          	beq	s1,a0,800021b6 <wakeup+0x34>
      acquire(&p->lock);
    800021ca:	8526                	mv	a0,s1
    800021cc:	fffff097          	auipc	ra,0xfffff
    800021d0:	a0a080e7          	jalr	-1526(ra) # 80000bd6 <acquire>
      if (p->state == SLEEPING && p->chan == chan)
    800021d4:	4c9c                	lw	a5,24(s1)
    800021d6:	fd379be3          	bne	a5,s3,800021ac <wakeup+0x2a>
    800021da:	709c                	ld	a5,32(s1)
    800021dc:	fd4798e3          	bne	a5,s4,800021ac <wakeup+0x2a>
        p->state = RUNNABLE;
    800021e0:	0154ac23          	sw	s5,24(s1)
    800021e4:	b7e1                	j	800021ac <wakeup+0x2a>
    }
  }
}
    800021e6:	70e2                	ld	ra,56(sp)
    800021e8:	7442                	ld	s0,48(sp)
    800021ea:	74a2                	ld	s1,40(sp)
    800021ec:	7902                	ld	s2,32(sp)
    800021ee:	69e2                	ld	s3,24(sp)
    800021f0:	6a42                	ld	s4,16(sp)
    800021f2:	6aa2                	ld	s5,8(sp)
    800021f4:	6121                	addi	sp,sp,64
    800021f6:	8082                	ret

00000000800021f8 <reparent>:
{
    800021f8:	7179                	addi	sp,sp,-48
    800021fa:	f406                	sd	ra,40(sp)
    800021fc:	f022                	sd	s0,32(sp)
    800021fe:	ec26                	sd	s1,24(sp)
    80002200:	e84a                	sd	s2,16(sp)
    80002202:	e44e                	sd	s3,8(sp)
    80002204:	e052                	sd	s4,0(sp)
    80002206:	1800                	addi	s0,sp,48
    80002208:	892a                	mv	s2,a0
  for (pp = proc; pp < &proc[NPROC]; pp++)
    8000220a:	0000f497          	auipc	s1,0xf
    8000220e:	d8648493          	addi	s1,s1,-634 # 80010f90 <proc>
      pp->parent = initproc;
    80002212:	00006a17          	auipc	s4,0x6
    80002216:	6d6a0a13          	addi	s4,s4,1750 # 800088e8 <initproc>
  for (pp = proc; pp < &proc[NPROC]; pp++)
    8000221a:	00016997          	auipc	s3,0x16
    8000221e:	b7698993          	addi	s3,s3,-1162 # 80017d90 <tickslock>
    80002222:	a029                	j	8000222c <reparent+0x34>
    80002224:	1b848493          	addi	s1,s1,440
    80002228:	01348d63          	beq	s1,s3,80002242 <reparent+0x4a>
    if (pp->parent == p)
    8000222c:	7cbc                	ld	a5,120(s1)
    8000222e:	ff279be3          	bne	a5,s2,80002224 <reparent+0x2c>
      pp->parent = initproc;
    80002232:	000a3503          	ld	a0,0(s4)
    80002236:	fca8                	sd	a0,120(s1)
      wakeup(initproc);
    80002238:	00000097          	auipc	ra,0x0
    8000223c:	f4a080e7          	jalr	-182(ra) # 80002182 <wakeup>
    80002240:	b7d5                	j	80002224 <reparent+0x2c>
}
    80002242:	70a2                	ld	ra,40(sp)
    80002244:	7402                	ld	s0,32(sp)
    80002246:	64e2                	ld	s1,24(sp)
    80002248:	6942                	ld	s2,16(sp)
    8000224a:	69a2                	ld	s3,8(sp)
    8000224c:	6a02                	ld	s4,0(sp)
    8000224e:	6145                	addi	sp,sp,48
    80002250:	8082                	ret

0000000080002252 <exit>:
{
    80002252:	7179                	addi	sp,sp,-48
    80002254:	f406                	sd	ra,40(sp)
    80002256:	f022                	sd	s0,32(sp)
    80002258:	ec26                	sd	s1,24(sp)
    8000225a:	e84a                	sd	s2,16(sp)
    8000225c:	e44e                	sd	s3,8(sp)
    8000225e:	e052                	sd	s4,0(sp)
    80002260:	1800                	addi	s0,sp,48
    80002262:	8a2a                	mv	s4,a0
  struct proc *p = myproc();
    80002264:	fffff097          	auipc	ra,0xfffff
    80002268:	748080e7          	jalr	1864(ra) # 800019ac <myproc>
    8000226c:	89aa                	mv	s3,a0
  if (p == initproc)
    8000226e:	00006797          	auipc	a5,0x6
    80002272:	67a7b783          	ld	a5,1658(a5) # 800088e8 <initproc>
    80002276:	11050493          	addi	s1,a0,272
    8000227a:	19050913          	addi	s2,a0,400
    8000227e:	02a79363          	bne	a5,a0,800022a4 <exit+0x52>
    panic("init exiting");
    80002282:	00006517          	auipc	a0,0x6
    80002286:	fde50513          	addi	a0,a0,-34 # 80008260 <digits+0x220>
    8000228a:	ffffe097          	auipc	ra,0xffffe
    8000228e:	2b4080e7          	jalr	692(ra) # 8000053e <panic>
      fileclose(f);
    80002292:	00003097          	auipc	ra,0x3
    80002296:	b86080e7          	jalr	-1146(ra) # 80004e18 <fileclose>
      p->ofile[fd] = 0;
    8000229a:	0004b023          	sd	zero,0(s1)
  for (int fd = 0; fd < NOFILE; fd++)
    8000229e:	04a1                	addi	s1,s1,8
    800022a0:	01248563          	beq	s1,s2,800022aa <exit+0x58>
    if (p->ofile[fd])
    800022a4:	6088                	ld	a0,0(s1)
    800022a6:	f575                	bnez	a0,80002292 <exit+0x40>
    800022a8:	bfdd                	j	8000229e <exit+0x4c>
  begin_op();
    800022aa:	00002097          	auipc	ra,0x2
    800022ae:	6a2080e7          	jalr	1698(ra) # 8000494c <begin_op>
  iput(p->cwd);
    800022b2:	1909b503          	ld	a0,400(s3)
    800022b6:	00002097          	auipc	ra,0x2
    800022ba:	e8e080e7          	jalr	-370(ra) # 80004144 <iput>
  end_op();
    800022be:	00002097          	auipc	ra,0x2
    800022c2:	70e080e7          	jalr	1806(ra) # 800049cc <end_op>
  p->cwd = 0;
    800022c6:	1809b823          	sd	zero,400(s3)
  acquire(&wait_lock);
    800022ca:	0000f497          	auipc	s1,0xf
    800022ce:	8ae48493          	addi	s1,s1,-1874 # 80010b78 <wait_lock>
    800022d2:	8526                	mv	a0,s1
    800022d4:	fffff097          	auipc	ra,0xfffff
    800022d8:	902080e7          	jalr	-1790(ra) # 80000bd6 <acquire>
  reparent(p);
    800022dc:	854e                	mv	a0,s3
    800022de:	00000097          	auipc	ra,0x0
    800022e2:	f1a080e7          	jalr	-230(ra) # 800021f8 <reparent>
  wakeup(p->parent);
    800022e6:	0789b503          	ld	a0,120(s3)
    800022ea:	00000097          	auipc	ra,0x0
    800022ee:	e98080e7          	jalr	-360(ra) # 80002182 <wakeup>
  acquire(&p->lock);
    800022f2:	854e                	mv	a0,s3
    800022f4:	fffff097          	auipc	ra,0xfffff
    800022f8:	8e2080e7          	jalr	-1822(ra) # 80000bd6 <acquire>
  p->xstate = status;
    800022fc:	0349a623          	sw	s4,44(s3)
  p->state = ZOMBIE;
    80002300:	4795                	li	a5,5
    80002302:	00f9ac23          	sw	a5,24(s3)
  p->etime = ticks;
    80002306:	00006797          	auipc	a5,0x6
    8000230a:	5ea7a783          	lw	a5,1514(a5) # 800088f0 <ticks>
    8000230e:	1af9a823          	sw	a5,432(s3)
  release(&wait_lock);
    80002312:	8526                	mv	a0,s1
    80002314:	fffff097          	auipc	ra,0xfffff
    80002318:	976080e7          	jalr	-1674(ra) # 80000c8a <release>
  sched();
    8000231c:	00000097          	auipc	ra,0x0
    80002320:	cf0080e7          	jalr	-784(ra) # 8000200c <sched>
  panic("zombie exit");
    80002324:	00006517          	auipc	a0,0x6
    80002328:	f4c50513          	addi	a0,a0,-180 # 80008270 <digits+0x230>
    8000232c:	ffffe097          	auipc	ra,0xffffe
    80002330:	212080e7          	jalr	530(ra) # 8000053e <panic>

0000000080002334 <kill>:

// Kill the process with the given pid.
// The victim won't exit until it tries to return
// to user space (see usertrap() in trap.c).
int kill(int pid)
{
    80002334:	7179                	addi	sp,sp,-48
    80002336:	f406                	sd	ra,40(sp)
    80002338:	f022                	sd	s0,32(sp)
    8000233a:	ec26                	sd	s1,24(sp)
    8000233c:	e84a                	sd	s2,16(sp)
    8000233e:	e44e                	sd	s3,8(sp)
    80002340:	1800                	addi	s0,sp,48
    80002342:	892a                	mv	s2,a0
  struct proc *p;

  for (p = proc; p < &proc[NPROC]; p++)
    80002344:	0000f497          	auipc	s1,0xf
    80002348:	c4c48493          	addi	s1,s1,-948 # 80010f90 <proc>
    8000234c:	00016997          	auipc	s3,0x16
    80002350:	a4498993          	addi	s3,s3,-1468 # 80017d90 <tickslock>
  {
    acquire(&p->lock);
    80002354:	8526                	mv	a0,s1
    80002356:	fffff097          	auipc	ra,0xfffff
    8000235a:	880080e7          	jalr	-1920(ra) # 80000bd6 <acquire>
    if (p->pid == pid)
    8000235e:	589c                	lw	a5,48(s1)
    80002360:	01278d63          	beq	a5,s2,8000237a <kill+0x46>
        p->state = RUNNABLE;
      }
      release(&p->lock);
      return 0;
    }
    release(&p->lock);
    80002364:	8526                	mv	a0,s1
    80002366:	fffff097          	auipc	ra,0xfffff
    8000236a:	924080e7          	jalr	-1756(ra) # 80000c8a <release>
  for (p = proc; p < &proc[NPROC]; p++)
    8000236e:	1b848493          	addi	s1,s1,440
    80002372:	ff3491e3          	bne	s1,s3,80002354 <kill+0x20>
  }
  return -1;
    80002376:	557d                	li	a0,-1
    80002378:	a829                	j	80002392 <kill+0x5e>
      p->killed = 1;
    8000237a:	4785                	li	a5,1
    8000237c:	d49c                	sw	a5,40(s1)
      if (p->state == SLEEPING)
    8000237e:	4c98                	lw	a4,24(s1)
    80002380:	4789                	li	a5,2
    80002382:	00f70f63          	beq	a4,a5,800023a0 <kill+0x6c>
      release(&p->lock);
    80002386:	8526                	mv	a0,s1
    80002388:	fffff097          	auipc	ra,0xfffff
    8000238c:	902080e7          	jalr	-1790(ra) # 80000c8a <release>
      return 0;
    80002390:	4501                	li	a0,0
}
    80002392:	70a2                	ld	ra,40(sp)
    80002394:	7402                	ld	s0,32(sp)
    80002396:	64e2                	ld	s1,24(sp)
    80002398:	6942                	ld	s2,16(sp)
    8000239a:	69a2                	ld	s3,8(sp)
    8000239c:	6145                	addi	sp,sp,48
    8000239e:	8082                	ret
        p->state = RUNNABLE;
    800023a0:	478d                	li	a5,3
    800023a2:	cc9c                	sw	a5,24(s1)
    800023a4:	b7cd                	j	80002386 <kill+0x52>

00000000800023a6 <setkilled>:

void setkilled(struct proc *p)
{
    800023a6:	1101                	addi	sp,sp,-32
    800023a8:	ec06                	sd	ra,24(sp)
    800023aa:	e822                	sd	s0,16(sp)
    800023ac:	e426                	sd	s1,8(sp)
    800023ae:	1000                	addi	s0,sp,32
    800023b0:	84aa                	mv	s1,a0
  acquire(&p->lock);
    800023b2:	fffff097          	auipc	ra,0xfffff
    800023b6:	824080e7          	jalr	-2012(ra) # 80000bd6 <acquire>
  p->killed = 1;
    800023ba:	4785                	li	a5,1
    800023bc:	d49c                	sw	a5,40(s1)
  release(&p->lock);
    800023be:	8526                	mv	a0,s1
    800023c0:	fffff097          	auipc	ra,0xfffff
    800023c4:	8ca080e7          	jalr	-1846(ra) # 80000c8a <release>
}
    800023c8:	60e2                	ld	ra,24(sp)
    800023ca:	6442                	ld	s0,16(sp)
    800023cc:	64a2                	ld	s1,8(sp)
    800023ce:	6105                	addi	sp,sp,32
    800023d0:	8082                	ret

00000000800023d2 <killed>:

int killed(struct proc *p)
{
    800023d2:	1101                	addi	sp,sp,-32
    800023d4:	ec06                	sd	ra,24(sp)
    800023d6:	e822                	sd	s0,16(sp)
    800023d8:	e426                	sd	s1,8(sp)
    800023da:	e04a                	sd	s2,0(sp)
    800023dc:	1000                	addi	s0,sp,32
    800023de:	84aa                	mv	s1,a0
  int k;

  acquire(&p->lock);
    800023e0:	ffffe097          	auipc	ra,0xffffe
    800023e4:	7f6080e7          	jalr	2038(ra) # 80000bd6 <acquire>
  k = p->killed;
    800023e8:	0284a903          	lw	s2,40(s1)
  release(&p->lock);
    800023ec:	8526                	mv	a0,s1
    800023ee:	fffff097          	auipc	ra,0xfffff
    800023f2:	89c080e7          	jalr	-1892(ra) # 80000c8a <release>
  return k;
}
    800023f6:	854a                	mv	a0,s2
    800023f8:	60e2                	ld	ra,24(sp)
    800023fa:	6442                	ld	s0,16(sp)
    800023fc:	64a2                	ld	s1,8(sp)
    800023fe:	6902                	ld	s2,0(sp)
    80002400:	6105                	addi	sp,sp,32
    80002402:	8082                	ret

0000000080002404 <wait>:
{
    80002404:	715d                	addi	sp,sp,-80
    80002406:	e486                	sd	ra,72(sp)
    80002408:	e0a2                	sd	s0,64(sp)
    8000240a:	fc26                	sd	s1,56(sp)
    8000240c:	f84a                	sd	s2,48(sp)
    8000240e:	f44e                	sd	s3,40(sp)
    80002410:	f052                	sd	s4,32(sp)
    80002412:	ec56                	sd	s5,24(sp)
    80002414:	e85a                	sd	s6,16(sp)
    80002416:	e45e                	sd	s7,8(sp)
    80002418:	e062                	sd	s8,0(sp)
    8000241a:	0880                	addi	s0,sp,80
    8000241c:	8b2a                	mv	s6,a0
  struct proc *p = myproc();
    8000241e:	fffff097          	auipc	ra,0xfffff
    80002422:	58e080e7          	jalr	1422(ra) # 800019ac <myproc>
    80002426:	892a                	mv	s2,a0
  acquire(&wait_lock);
    80002428:	0000e517          	auipc	a0,0xe
    8000242c:	75050513          	addi	a0,a0,1872 # 80010b78 <wait_lock>
    80002430:	ffffe097          	auipc	ra,0xffffe
    80002434:	7a6080e7          	jalr	1958(ra) # 80000bd6 <acquire>
    havekids = 0;
    80002438:	4b81                	li	s7,0
        if (pp->state == ZOMBIE)
    8000243a:	4a15                	li	s4,5
        havekids = 1;
    8000243c:	4a85                	li	s5,1
    for (pp = proc; pp < &proc[NPROC]; pp++)
    8000243e:	00016997          	auipc	s3,0x16
    80002442:	95298993          	addi	s3,s3,-1710 # 80017d90 <tickslock>
    sleep(p, &wait_lock); // DOC: wait-sleep
    80002446:	0000ec17          	auipc	s8,0xe
    8000244a:	732c0c13          	addi	s8,s8,1842 # 80010b78 <wait_lock>
    havekids = 0;
    8000244e:	875e                	mv	a4,s7
    for (pp = proc; pp < &proc[NPROC]; pp++)
    80002450:	0000f497          	auipc	s1,0xf
    80002454:	b4048493          	addi	s1,s1,-1216 # 80010f90 <proc>
    80002458:	a0bd                	j	800024c6 <wait+0xc2>
          pid = pp->pid;
    8000245a:	0304a983          	lw	s3,48(s1)
          if (addr != 0 && copyout(p->pagetable, addr, (char *)&pp->xstate,
    8000245e:	000b0e63          	beqz	s6,8000247a <wait+0x76>
    80002462:	4691                	li	a3,4
    80002464:	02c48613          	addi	a2,s1,44
    80002468:	85da                	mv	a1,s6
    8000246a:	09093503          	ld	a0,144(s2)
    8000246e:	fffff097          	auipc	ra,0xfffff
    80002472:	1fa080e7          	jalr	506(ra) # 80001668 <copyout>
    80002476:	02054563          	bltz	a0,800024a0 <wait+0x9c>
          freeproc(pp);
    8000247a:	8526                	mv	a0,s1
    8000247c:	fffff097          	auipc	ra,0xfffff
    80002480:	6e2080e7          	jalr	1762(ra) # 80001b5e <freeproc>
          release(&pp->lock);
    80002484:	8526                	mv	a0,s1
    80002486:	fffff097          	auipc	ra,0xfffff
    8000248a:	804080e7          	jalr	-2044(ra) # 80000c8a <release>
          release(&wait_lock);
    8000248e:	0000e517          	auipc	a0,0xe
    80002492:	6ea50513          	addi	a0,a0,1770 # 80010b78 <wait_lock>
    80002496:	ffffe097          	auipc	ra,0xffffe
    8000249a:	7f4080e7          	jalr	2036(ra) # 80000c8a <release>
          return pid;
    8000249e:	a0b5                	j	8000250a <wait+0x106>
            release(&pp->lock);
    800024a0:	8526                	mv	a0,s1
    800024a2:	ffffe097          	auipc	ra,0xffffe
    800024a6:	7e8080e7          	jalr	2024(ra) # 80000c8a <release>
            release(&wait_lock);
    800024aa:	0000e517          	auipc	a0,0xe
    800024ae:	6ce50513          	addi	a0,a0,1742 # 80010b78 <wait_lock>
    800024b2:	ffffe097          	auipc	ra,0xffffe
    800024b6:	7d8080e7          	jalr	2008(ra) # 80000c8a <release>
            return -1;
    800024ba:	59fd                	li	s3,-1
    800024bc:	a0b9                	j	8000250a <wait+0x106>
    for (pp = proc; pp < &proc[NPROC]; pp++)
    800024be:	1b848493          	addi	s1,s1,440
    800024c2:	03348463          	beq	s1,s3,800024ea <wait+0xe6>
      if (pp->parent == p)
    800024c6:	7cbc                	ld	a5,120(s1)
    800024c8:	ff279be3          	bne	a5,s2,800024be <wait+0xba>
        acquire(&pp->lock);
    800024cc:	8526                	mv	a0,s1
    800024ce:	ffffe097          	auipc	ra,0xffffe
    800024d2:	708080e7          	jalr	1800(ra) # 80000bd6 <acquire>
        if (pp->state == ZOMBIE)
    800024d6:	4c9c                	lw	a5,24(s1)
    800024d8:	f94781e3          	beq	a5,s4,8000245a <wait+0x56>
        release(&pp->lock);
    800024dc:	8526                	mv	a0,s1
    800024de:	ffffe097          	auipc	ra,0xffffe
    800024e2:	7ac080e7          	jalr	1964(ra) # 80000c8a <release>
        havekids = 1;
    800024e6:	8756                	mv	a4,s5
    800024e8:	bfd9                	j	800024be <wait+0xba>
    if (!havekids || killed(p))
    800024ea:	c719                	beqz	a4,800024f8 <wait+0xf4>
    800024ec:	854a                	mv	a0,s2
    800024ee:	00000097          	auipc	ra,0x0
    800024f2:	ee4080e7          	jalr	-284(ra) # 800023d2 <killed>
    800024f6:	c51d                	beqz	a0,80002524 <wait+0x120>
      release(&wait_lock);
    800024f8:	0000e517          	auipc	a0,0xe
    800024fc:	68050513          	addi	a0,a0,1664 # 80010b78 <wait_lock>
    80002500:	ffffe097          	auipc	ra,0xffffe
    80002504:	78a080e7          	jalr	1930(ra) # 80000c8a <release>
      return -1;
    80002508:	59fd                	li	s3,-1
}
    8000250a:	854e                	mv	a0,s3
    8000250c:	60a6                	ld	ra,72(sp)
    8000250e:	6406                	ld	s0,64(sp)
    80002510:	74e2                	ld	s1,56(sp)
    80002512:	7942                	ld	s2,48(sp)
    80002514:	79a2                	ld	s3,40(sp)
    80002516:	7a02                	ld	s4,32(sp)
    80002518:	6ae2                	ld	s5,24(sp)
    8000251a:	6b42                	ld	s6,16(sp)
    8000251c:	6ba2                	ld	s7,8(sp)
    8000251e:	6c02                	ld	s8,0(sp)
    80002520:	6161                	addi	sp,sp,80
    80002522:	8082                	ret
    sleep(p, &wait_lock); // DOC: wait-sleep
    80002524:	85e2                	mv	a1,s8
    80002526:	854a                	mv	a0,s2
    80002528:	00000097          	auipc	ra,0x0
    8000252c:	bf6080e7          	jalr	-1034(ra) # 8000211e <sleep>
    havekids = 0;
    80002530:	bf39                	j	8000244e <wait+0x4a>

0000000080002532 <either_copyout>:

// Copy to either a user address, or kernel address,
// depending on usr_dst.
// Returns 0 on success, -1 on error.
int either_copyout(int user_dst, uint64 dst, void *src, uint64 len)
{
    80002532:	7179                	addi	sp,sp,-48
    80002534:	f406                	sd	ra,40(sp)
    80002536:	f022                	sd	s0,32(sp)
    80002538:	ec26                	sd	s1,24(sp)
    8000253a:	e84a                	sd	s2,16(sp)
    8000253c:	e44e                	sd	s3,8(sp)
    8000253e:	e052                	sd	s4,0(sp)
    80002540:	1800                	addi	s0,sp,48
    80002542:	84aa                	mv	s1,a0
    80002544:	892e                	mv	s2,a1
    80002546:	89b2                	mv	s3,a2
    80002548:	8a36                	mv	s4,a3
  struct proc *p = myproc();
    8000254a:	fffff097          	auipc	ra,0xfffff
    8000254e:	462080e7          	jalr	1122(ra) # 800019ac <myproc>
  if (user_dst)
    80002552:	c08d                	beqz	s1,80002574 <either_copyout+0x42>
  {
    return copyout(p->pagetable, dst, src, len);
    80002554:	86d2                	mv	a3,s4
    80002556:	864e                	mv	a2,s3
    80002558:	85ca                	mv	a1,s2
    8000255a:	6948                	ld	a0,144(a0)
    8000255c:	fffff097          	auipc	ra,0xfffff
    80002560:	10c080e7          	jalr	268(ra) # 80001668 <copyout>
  else
  {
    memmove((char *)dst, src, len);
    return 0;
  }
}
    80002564:	70a2                	ld	ra,40(sp)
    80002566:	7402                	ld	s0,32(sp)
    80002568:	64e2                	ld	s1,24(sp)
    8000256a:	6942                	ld	s2,16(sp)
    8000256c:	69a2                	ld	s3,8(sp)
    8000256e:	6a02                	ld	s4,0(sp)
    80002570:	6145                	addi	sp,sp,48
    80002572:	8082                	ret
    memmove((char *)dst, src, len);
    80002574:	000a061b          	sext.w	a2,s4
    80002578:	85ce                	mv	a1,s3
    8000257a:	854a                	mv	a0,s2
    8000257c:	ffffe097          	auipc	ra,0xffffe
    80002580:	7b2080e7          	jalr	1970(ra) # 80000d2e <memmove>
    return 0;
    80002584:	8526                	mv	a0,s1
    80002586:	bff9                	j	80002564 <either_copyout+0x32>

0000000080002588 <either_copyin>:

// Copy from either a user address, or kernel address,
// depending on usr_src.
// Returns 0 on success, -1 on error.
int either_copyin(void *dst, int user_src, uint64 src, uint64 len)
{
    80002588:	7179                	addi	sp,sp,-48
    8000258a:	f406                	sd	ra,40(sp)
    8000258c:	f022                	sd	s0,32(sp)
    8000258e:	ec26                	sd	s1,24(sp)
    80002590:	e84a                	sd	s2,16(sp)
    80002592:	e44e                	sd	s3,8(sp)
    80002594:	e052                	sd	s4,0(sp)
    80002596:	1800                	addi	s0,sp,48
    80002598:	892a                	mv	s2,a0
    8000259a:	84ae                	mv	s1,a1
    8000259c:	89b2                	mv	s3,a2
    8000259e:	8a36                	mv	s4,a3
  struct proc *p = myproc();
    800025a0:	fffff097          	auipc	ra,0xfffff
    800025a4:	40c080e7          	jalr	1036(ra) # 800019ac <myproc>
  if (user_src)
    800025a8:	c08d                	beqz	s1,800025ca <either_copyin+0x42>
  {
    return copyin(p->pagetable, dst, src, len);
    800025aa:	86d2                	mv	a3,s4
    800025ac:	864e                	mv	a2,s3
    800025ae:	85ca                	mv	a1,s2
    800025b0:	6948                	ld	a0,144(a0)
    800025b2:	fffff097          	auipc	ra,0xfffff
    800025b6:	142080e7          	jalr	322(ra) # 800016f4 <copyin>
  else
  {
    memmove(dst, (char *)src, len);
    return 0;
  }
}
    800025ba:	70a2                	ld	ra,40(sp)
    800025bc:	7402                	ld	s0,32(sp)
    800025be:	64e2                	ld	s1,24(sp)
    800025c0:	6942                	ld	s2,16(sp)
    800025c2:	69a2                	ld	s3,8(sp)
    800025c4:	6a02                	ld	s4,0(sp)
    800025c6:	6145                	addi	sp,sp,48
    800025c8:	8082                	ret
    memmove(dst, (char *)src, len);
    800025ca:	000a061b          	sext.w	a2,s4
    800025ce:	85ce                	mv	a1,s3
    800025d0:	854a                	mv	a0,s2
    800025d2:	ffffe097          	auipc	ra,0xffffe
    800025d6:	75c080e7          	jalr	1884(ra) # 80000d2e <memmove>
    return 0;
    800025da:	8526                	mv	a0,s1
    800025dc:	bff9                	j	800025ba <either_copyin+0x32>

00000000800025de <procdump>:

// Print a process listing to console.  For debugging.
// Runs when user types ^P on console.
// No lock to avoid wedging a stuck machine further.
void procdump(void)
{
    800025de:	711d                	addi	sp,sp,-96
    800025e0:	ec86                	sd	ra,88(sp)
    800025e2:	e8a2                	sd	s0,80(sp)
    800025e4:	e4a6                	sd	s1,72(sp)
    800025e6:	e0ca                	sd	s2,64(sp)
    800025e8:	fc4e                	sd	s3,56(sp)
    800025ea:	f852                	sd	s4,48(sp)
    800025ec:	f456                	sd	s5,40(sp)
    800025ee:	f05a                	sd	s6,32(sp)
    800025f0:	ec5e                	sd	s7,24(sp)
    800025f2:	e862                	sd	s8,16(sp)
    800025f4:	e466                	sd	s9,8(sp)
    800025f6:	1080                	addi	s0,sp,96
      [RUNNING] "run   ",
      [ZOMBIE] "zombie"};
  struct proc *p;
  char *state;

  printf("\n");
    800025f8:	00006517          	auipc	a0,0x6
    800025fc:	da050513          	addi	a0,a0,-608 # 80008398 <states.0+0xd0>
    80002600:	ffffe097          	auipc	ra,0xffffe
    80002604:	f88080e7          	jalr	-120(ra) # 80000588 <printf>
  for (p = proc; p < &proc[NPROC]; p++)
    80002608:	0000f497          	auipc	s1,0xf
    8000260c:	b2048493          	addi	s1,s1,-1248 # 80011128 <proc+0x198>
    80002610:	00016917          	auipc	s2,0x16
    80002614:	91890913          	addi	s2,s2,-1768 # 80017f28 <bcache+0x180>
  {
    if (p->state == UNUSED)
      continue;
    if (p->state >= 0 && p->state < NELEM(states) && states[p->state])
    80002618:	4a95                	li	s5,5
      state = states[p->state];
    else
      state = "???";
    8000261a:	00006997          	auipc	s3,0x6
    8000261e:	c6698993          	addi	s3,s3,-922 # 80008280 <digits+0x240>
    if (p->state == RUNNING)
    80002622:	4a11                	li	s4,4
    {
      printf("%d %s %s %d %d", p->pid, state, p->name, p->queue, ticks);
    80002624:	00006c97          	auipc	s9,0x6
    80002628:	2ccc8c93          	addi	s9,s9,716 # 800088f0 <ticks>
    8000262c:	00006c17          	auipc	s8,0x6
    80002630:	c5cc0c13          	addi	s8,s8,-932 # 80008288 <digits+0x248>
      printf("\n");
    80002634:	00006b97          	auipc	s7,0x6
    80002638:	d64b8b93          	addi	s7,s7,-668 # 80008398 <states.0+0xd0>
    if (p->state >= 0 && p->state < NELEM(states) && states[p->state])
    8000263c:	00006b17          	auipc	s6,0x6
    80002640:	c8cb0b13          	addi	s6,s6,-884 # 800082c8 <states.0>
    80002644:	a039                	j	80002652 <procdump+0x74>
    if (p->state == RUNNING)
    80002646:	03478663          	beq	a5,s4,80002672 <procdump+0x94>
  for (p = proc; p < &proc[NPROC]; p++)
    8000264a:	1b848493          	addi	s1,s1,440
    8000264e:	05248363          	beq	s1,s2,80002694 <procdump+0xb6>
    if (p->state == UNUSED)
    80002652:	86a6                	mv	a3,s1
    80002654:	e804a783          	lw	a5,-384(s1)
    80002658:	dbed                	beqz	a5,8000264a <procdump+0x6c>
      state = "???";
    8000265a:	864e                	mv	a2,s3
    if (p->state >= 0 && p->state < NELEM(states) && states[p->state])
    8000265c:	fefae5e3          	bltu	s5,a5,80002646 <procdump+0x68>
    80002660:	02079713          	slli	a4,a5,0x20
    80002664:	9301                	srli	a4,a4,0x20
    80002666:	070e                	slli	a4,a4,0x3
    80002668:	975a                	add	a4,a4,s6
    8000266a:	6310                	ld	a2,0(a4)
    8000266c:	fe69                	bnez	a2,80002646 <procdump+0x68>
      state = "???";
    8000266e:	864e                	mv	a2,s3
    80002670:	bfd9                	j	80002646 <procdump+0x68>
      printf("%d %s %s %d %d", p->pid, state, p->name, p->queue, ticks);
    80002672:	000ca783          	lw	a5,0(s9)
    80002676:	ec86a703          	lw	a4,-312(a3)
    8000267a:	e986a583          	lw	a1,-360(a3)
    8000267e:	8562                	mv	a0,s8
    80002680:	ffffe097          	auipc	ra,0xffffe
    80002684:	f08080e7          	jalr	-248(ra) # 80000588 <printf>
      printf("\n");
    80002688:	855e                	mv	a0,s7
    8000268a:	ffffe097          	auipc	ra,0xffffe
    8000268e:	efe080e7          	jalr	-258(ra) # 80000588 <printf>
    80002692:	bf65                	j	8000264a <procdump+0x6c>
    }
  }
}
    80002694:	60e6                	ld	ra,88(sp)
    80002696:	6446                	ld	s0,80(sp)
    80002698:	64a6                	ld	s1,72(sp)
    8000269a:	6906                	ld	s2,64(sp)
    8000269c:	79e2                	ld	s3,56(sp)
    8000269e:	7a42                	ld	s4,48(sp)
    800026a0:	7aa2                	ld	s5,40(sp)
    800026a2:	7b02                	ld	s6,32(sp)
    800026a4:	6be2                	ld	s7,24(sp)
    800026a6:	6c42                	ld	s8,16(sp)
    800026a8:	6ca2                	ld	s9,8(sp)
    800026aa:	6125                	addi	sp,sp,96
    800026ac:	8082                	ret

00000000800026ae <waitx>:

// waitx
int waitx(uint64 addr, uint *wtime, uint *rtime)
{
    800026ae:	711d                	addi	sp,sp,-96
    800026b0:	ec86                	sd	ra,88(sp)
    800026b2:	e8a2                	sd	s0,80(sp)
    800026b4:	e4a6                	sd	s1,72(sp)
    800026b6:	e0ca                	sd	s2,64(sp)
    800026b8:	fc4e                	sd	s3,56(sp)
    800026ba:	f852                	sd	s4,48(sp)
    800026bc:	f456                	sd	s5,40(sp)
    800026be:	f05a                	sd	s6,32(sp)
    800026c0:	ec5e                	sd	s7,24(sp)
    800026c2:	e862                	sd	s8,16(sp)
    800026c4:	e466                	sd	s9,8(sp)
    800026c6:	e06a                	sd	s10,0(sp)
    800026c8:	1080                	addi	s0,sp,96
    800026ca:	8b2a                	mv	s6,a0
    800026cc:	8bae                	mv	s7,a1
    800026ce:	8c32                	mv	s8,a2
  struct proc *np;
  int havekids, pid;
  struct proc *p = myproc();
    800026d0:	fffff097          	auipc	ra,0xfffff
    800026d4:	2dc080e7          	jalr	732(ra) # 800019ac <myproc>
    800026d8:	892a                	mv	s2,a0

  acquire(&wait_lock);
    800026da:	0000e517          	auipc	a0,0xe
    800026de:	49e50513          	addi	a0,a0,1182 # 80010b78 <wait_lock>
    800026e2:	ffffe097          	auipc	ra,0xffffe
    800026e6:	4f4080e7          	jalr	1268(ra) # 80000bd6 <acquire>

  for (;;)
  {
    // Scan through table looking for exited children.
    havekids = 0;
    800026ea:	4c81                	li	s9,0
      {
        // make sure the child isn't still in exit() or swtch().
        acquire(&np->lock);

        havekids = 1;
        if (np->state == ZOMBIE)
    800026ec:	4a15                	li	s4,5
        havekids = 1;
    800026ee:	4a85                	li	s5,1
    for (np = proc; np < &proc[NPROC]; np++)
    800026f0:	00015997          	auipc	s3,0x15
    800026f4:	6a098993          	addi	s3,s3,1696 # 80017d90 <tickslock>
      release(&wait_lock);
      return -1;
    }

    // Wait for a child to exit.
    sleep(p, &wait_lock); // DOC: wait-sleep
    800026f8:	0000ed17          	auipc	s10,0xe
    800026fc:	480d0d13          	addi	s10,s10,1152 # 80010b78 <wait_lock>
    havekids = 0;
    80002700:	8766                	mv	a4,s9
    for (np = proc; np < &proc[NPROC]; np++)
    80002702:	0000f497          	auipc	s1,0xf
    80002706:	88e48493          	addi	s1,s1,-1906 # 80010f90 <proc>
    8000270a:	a059                	j	80002790 <waitx+0xe2>
          pid = np->pid;
    8000270c:	0304a983          	lw	s3,48(s1)
          *rtime = np->rtime;
    80002710:	1a84a703          	lw	a4,424(s1)
    80002714:	00ec2023          	sw	a4,0(s8)
          *wtime = np->etime - np->ctime - np->rtime;
    80002718:	1ac4a783          	lw	a5,428(s1)
    8000271c:	9f3d                	addw	a4,a4,a5
    8000271e:	1b04a783          	lw	a5,432(s1)
    80002722:	9f99                	subw	a5,a5,a4
    80002724:	00fba023          	sw	a5,0(s7)
          if (addr != 0 && copyout(p->pagetable, addr, (char *)&np->xstate,
    80002728:	000b0e63          	beqz	s6,80002744 <waitx+0x96>
    8000272c:	4691                	li	a3,4
    8000272e:	02c48613          	addi	a2,s1,44
    80002732:	85da                	mv	a1,s6
    80002734:	09093503          	ld	a0,144(s2)
    80002738:	fffff097          	auipc	ra,0xfffff
    8000273c:	f30080e7          	jalr	-208(ra) # 80001668 <copyout>
    80002740:	02054563          	bltz	a0,8000276a <waitx+0xbc>
          freeproc(np);
    80002744:	8526                	mv	a0,s1
    80002746:	fffff097          	auipc	ra,0xfffff
    8000274a:	418080e7          	jalr	1048(ra) # 80001b5e <freeproc>
          release(&np->lock);
    8000274e:	8526                	mv	a0,s1
    80002750:	ffffe097          	auipc	ra,0xffffe
    80002754:	53a080e7          	jalr	1338(ra) # 80000c8a <release>
          release(&wait_lock);
    80002758:	0000e517          	auipc	a0,0xe
    8000275c:	42050513          	addi	a0,a0,1056 # 80010b78 <wait_lock>
    80002760:	ffffe097          	auipc	ra,0xffffe
    80002764:	52a080e7          	jalr	1322(ra) # 80000c8a <release>
          return pid;
    80002768:	a09d                	j	800027ce <waitx+0x120>
            release(&np->lock);
    8000276a:	8526                	mv	a0,s1
    8000276c:	ffffe097          	auipc	ra,0xffffe
    80002770:	51e080e7          	jalr	1310(ra) # 80000c8a <release>
            release(&wait_lock);
    80002774:	0000e517          	auipc	a0,0xe
    80002778:	40450513          	addi	a0,a0,1028 # 80010b78 <wait_lock>
    8000277c:	ffffe097          	auipc	ra,0xffffe
    80002780:	50e080e7          	jalr	1294(ra) # 80000c8a <release>
            return -1;
    80002784:	59fd                	li	s3,-1
    80002786:	a0a1                	j	800027ce <waitx+0x120>
    for (np = proc; np < &proc[NPROC]; np++)
    80002788:	1b848493          	addi	s1,s1,440
    8000278c:	03348463          	beq	s1,s3,800027b4 <waitx+0x106>
      if (np->parent == p)
    80002790:	7cbc                	ld	a5,120(s1)
    80002792:	ff279be3          	bne	a5,s2,80002788 <waitx+0xda>
        acquire(&np->lock);
    80002796:	8526                	mv	a0,s1
    80002798:	ffffe097          	auipc	ra,0xffffe
    8000279c:	43e080e7          	jalr	1086(ra) # 80000bd6 <acquire>
        if (np->state == ZOMBIE)
    800027a0:	4c9c                	lw	a5,24(s1)
    800027a2:	f74785e3          	beq	a5,s4,8000270c <waitx+0x5e>
        release(&np->lock);
    800027a6:	8526                	mv	a0,s1
    800027a8:	ffffe097          	auipc	ra,0xffffe
    800027ac:	4e2080e7          	jalr	1250(ra) # 80000c8a <release>
        havekids = 1;
    800027b0:	8756                	mv	a4,s5
    800027b2:	bfd9                	j	80002788 <waitx+0xda>
    if (!havekids || p->killed)
    800027b4:	c701                	beqz	a4,800027bc <waitx+0x10e>
    800027b6:	02892783          	lw	a5,40(s2)
    800027ba:	cb8d                	beqz	a5,800027ec <waitx+0x13e>
      release(&wait_lock);
    800027bc:	0000e517          	auipc	a0,0xe
    800027c0:	3bc50513          	addi	a0,a0,956 # 80010b78 <wait_lock>
    800027c4:	ffffe097          	auipc	ra,0xffffe
    800027c8:	4c6080e7          	jalr	1222(ra) # 80000c8a <release>
      return -1;
    800027cc:	59fd                	li	s3,-1
  }
}
    800027ce:	854e                	mv	a0,s3
    800027d0:	60e6                	ld	ra,88(sp)
    800027d2:	6446                	ld	s0,80(sp)
    800027d4:	64a6                	ld	s1,72(sp)
    800027d6:	6906                	ld	s2,64(sp)
    800027d8:	79e2                	ld	s3,56(sp)
    800027da:	7a42                	ld	s4,48(sp)
    800027dc:	7aa2                	ld	s5,40(sp)
    800027de:	7b02                	ld	s6,32(sp)
    800027e0:	6be2                	ld	s7,24(sp)
    800027e2:	6c42                	ld	s8,16(sp)
    800027e4:	6ca2                	ld	s9,8(sp)
    800027e6:	6d02                	ld	s10,0(sp)
    800027e8:	6125                	addi	sp,sp,96
    800027ea:	8082                	ret
    sleep(p, &wait_lock); // DOC: wait-sleep
    800027ec:	85ea                	mv	a1,s10
    800027ee:	854a                	mv	a0,s2
    800027f0:	00000097          	auipc	ra,0x0
    800027f4:	92e080e7          	jalr	-1746(ra) # 8000211e <sleep>
    havekids = 0;
    800027f8:	b721                	j	80002700 <waitx+0x52>

00000000800027fa <update_time>:

void update_time()
{
    800027fa:	7179                	addi	sp,sp,-48
    800027fc:	f406                	sd	ra,40(sp)
    800027fe:	f022                	sd	s0,32(sp)
    80002800:	ec26                	sd	s1,24(sp)
    80002802:	e84a                	sd	s2,16(sp)
    80002804:	e44e                	sd	s3,8(sp)
    80002806:	1800                	addi	s0,sp,48
  struct proc *p;
  for (p = proc; p < &proc[NPROC]; p++)
    80002808:	0000e497          	auipc	s1,0xe
    8000280c:	78848493          	addi	s1,s1,1928 # 80010f90 <proc>
  {
    acquire(&p->lock);
    if (p->state == RUNNING)
    80002810:	4991                	li	s3,4
  for (p = proc; p < &proc[NPROC]; p++)
    80002812:	00015917          	auipc	s2,0x15
    80002816:	57e90913          	addi	s2,s2,1406 # 80017d90 <tickslock>
    8000281a:	a811                	j	8000282e <update_time+0x34>
    {
      p->rtime++;
    }
    release(&p->lock);
    8000281c:	8526                	mv	a0,s1
    8000281e:	ffffe097          	auipc	ra,0xffffe
    80002822:	46c080e7          	jalr	1132(ra) # 80000c8a <release>
  for (p = proc; p < &proc[NPROC]; p++)
    80002826:	1b848493          	addi	s1,s1,440
    8000282a:	03248063          	beq	s1,s2,8000284a <update_time+0x50>
    acquire(&p->lock);
    8000282e:	8526                	mv	a0,s1
    80002830:	ffffe097          	auipc	ra,0xffffe
    80002834:	3a6080e7          	jalr	934(ra) # 80000bd6 <acquire>
    if (p->state == RUNNING)
    80002838:	4c9c                	lw	a5,24(s1)
    8000283a:	ff3791e3          	bne	a5,s3,8000281c <update_time+0x22>
      p->rtime++;
    8000283e:	1a84a783          	lw	a5,424(s1)
    80002842:	2785                	addiw	a5,a5,1
    80002844:	1af4a423          	sw	a5,424(s1)
    80002848:	bfd1                	j	8000281c <update_time+0x22>
  }
}
    8000284a:	70a2                	ld	ra,40(sp)
    8000284c:	7402                	ld	s0,32(sp)
    8000284e:	64e2                	ld	s1,24(sp)
    80002850:	6942                	ld	s2,16(sp)
    80002852:	69a2                	ld	s3,8(sp)
    80002854:	6145                	addi	sp,sp,48
    80002856:	8082                	ret

0000000080002858 <swtch>:
    80002858:	00153023          	sd	ra,0(a0)
    8000285c:	00253423          	sd	sp,8(a0)
    80002860:	e900                	sd	s0,16(a0)
    80002862:	ed04                	sd	s1,24(a0)
    80002864:	03253023          	sd	s2,32(a0)
    80002868:	03353423          	sd	s3,40(a0)
    8000286c:	03453823          	sd	s4,48(a0)
    80002870:	03553c23          	sd	s5,56(a0)
    80002874:	05653023          	sd	s6,64(a0)
    80002878:	05753423          	sd	s7,72(a0)
    8000287c:	05853823          	sd	s8,80(a0)
    80002880:	05953c23          	sd	s9,88(a0)
    80002884:	07a53023          	sd	s10,96(a0)
    80002888:	07b53423          	sd	s11,104(a0)
    8000288c:	0005b083          	ld	ra,0(a1)
    80002890:	0085b103          	ld	sp,8(a1)
    80002894:	6980                	ld	s0,16(a1)
    80002896:	6d84                	ld	s1,24(a1)
    80002898:	0205b903          	ld	s2,32(a1)
    8000289c:	0285b983          	ld	s3,40(a1)
    800028a0:	0305ba03          	ld	s4,48(a1)
    800028a4:	0385ba83          	ld	s5,56(a1)
    800028a8:	0405bb03          	ld	s6,64(a1)
    800028ac:	0485bb83          	ld	s7,72(a1)
    800028b0:	0505bc03          	ld	s8,80(a1)
    800028b4:	0585bc83          	ld	s9,88(a1)
    800028b8:	0605bd03          	ld	s10,96(a1)
    800028bc:	0685bd83          	ld	s11,104(a1)
    800028c0:	8082                	ret

00000000800028c2 <trapinit>:
void kernelvec();

extern int devintr();

void trapinit(void)
{
    800028c2:	1141                	addi	sp,sp,-16
    800028c4:	e406                	sd	ra,8(sp)
    800028c6:	e022                	sd	s0,0(sp)
    800028c8:	0800                	addi	s0,sp,16
  initlock(&tickslock, "time");
    800028ca:	00006597          	auipc	a1,0x6
    800028ce:	a2e58593          	addi	a1,a1,-1490 # 800082f8 <states.0+0x30>
    800028d2:	00015517          	auipc	a0,0x15
    800028d6:	4be50513          	addi	a0,a0,1214 # 80017d90 <tickslock>
    800028da:	ffffe097          	auipc	ra,0xffffe
    800028de:	26c080e7          	jalr	620(ra) # 80000b46 <initlock>
}
    800028e2:	60a2                	ld	ra,8(sp)
    800028e4:	6402                	ld	s0,0(sp)
    800028e6:	0141                	addi	sp,sp,16
    800028e8:	8082                	ret

00000000800028ea <trapinithart>:

// set up to take exceptions and traps while in the kernel.
void trapinithart(void)
{
    800028ea:	1141                	addi	sp,sp,-16
    800028ec:	e422                	sd	s0,8(sp)
    800028ee:	0800                	addi	s0,sp,16
  asm volatile("csrw stvec, %0" : : "r" (x));
    800028f0:	00004797          	auipc	a5,0x4
    800028f4:	c2078793          	addi	a5,a5,-992 # 80006510 <kernelvec>
    800028f8:	10579073          	csrw	stvec,a5
  w_stvec((uint64)kernelvec);
}
    800028fc:	6422                	ld	s0,8(sp)
    800028fe:	0141                	addi	sp,sp,16
    80002900:	8082                	ret

0000000080002902 <usertrapret>:

//
// return to user space
//
void usertrapret(void)
{
    80002902:	1141                	addi	sp,sp,-16
    80002904:	e406                	sd	ra,8(sp)
    80002906:	e022                	sd	s0,0(sp)
    80002908:	0800                	addi	s0,sp,16
  struct proc *p = myproc();
    8000290a:	fffff097          	auipc	ra,0xfffff
    8000290e:	0a2080e7          	jalr	162(ra) # 800019ac <myproc>
  asm volatile("csrr %0, sstatus" : "=r" (x) );
    80002912:	100027f3          	csrr	a5,sstatus
  w_sstatus(r_sstatus() & ~SSTATUS_SIE);
    80002916:	9bf5                	andi	a5,a5,-3
  asm volatile("csrw sstatus, %0" : : "r" (x));
    80002918:	10079073          	csrw	sstatus,a5
  // kerneltrap() to usertrap(), so turn off interrupts until
  // we're back in user space, where usertrap() is correct.
  intr_off();

  // send syscalls, interrupts, and exceptions to uservec in trampoline.S
  uint64 trampoline_uservec = TRAMPOLINE + (uservec - trampoline);
    8000291c:	00004617          	auipc	a2,0x4
    80002920:	6e460613          	addi	a2,a2,1764 # 80007000 <_trampoline>
    80002924:	00004697          	auipc	a3,0x4
    80002928:	6dc68693          	addi	a3,a3,1756 # 80007000 <_trampoline>
    8000292c:	8e91                	sub	a3,a3,a2
    8000292e:	040007b7          	lui	a5,0x4000
    80002932:	17fd                	addi	a5,a5,-1
    80002934:	07b2                	slli	a5,a5,0xc
    80002936:	96be                	add	a3,a3,a5
  asm volatile("csrw stvec, %0" : : "r" (x));
    80002938:	10569073          	csrw	stvec,a3
  w_stvec(trampoline_uservec);

  // set up trapframe values that uservec will need when
  // the process next traps into the kernel.
  p->trapframe->kernel_satp = r_satp();         // kernel page table
    8000293c:	6d58                	ld	a4,152(a0)
  asm volatile("csrr %0, satp" : "=r" (x) );
    8000293e:	180026f3          	csrr	a3,satp
    80002942:	e314                	sd	a3,0(a4)
  p->trapframe->kernel_sp = p->kstack + PGSIZE; // process's kernel stack
    80002944:	6d58                	ld	a4,152(a0)
    80002946:	6154                	ld	a3,128(a0)
    80002948:	6585                	lui	a1,0x1
    8000294a:	96ae                	add	a3,a3,a1
    8000294c:	e714                	sd	a3,8(a4)
  p->trapframe->kernel_trap = (uint64)usertrap;
    8000294e:	6d58                	ld	a4,152(a0)
    80002950:	00000697          	auipc	a3,0x0
    80002954:	13e68693          	addi	a3,a3,318 # 80002a8e <usertrap>
    80002958:	eb14                	sd	a3,16(a4)
  p->trapframe->kernel_hartid = r_tp(); // hartid for cpuid()
    8000295a:	6d58                	ld	a4,152(a0)
  asm volatile("mv %0, tp" : "=r" (x) );
    8000295c:	8692                	mv	a3,tp
    8000295e:	f314                	sd	a3,32(a4)
  asm volatile("csrr %0, sstatus" : "=r" (x) );
    80002960:	100026f3          	csrr	a3,sstatus
  // set up the registers that trampoline.S's sret will use
  // to get to user space.

  // set S Previous Privilege mode to User.
  unsigned long x = r_sstatus();
  x &= ~SSTATUS_SPP; // clear SPP to 0 for user mode
    80002964:	eff6f693          	andi	a3,a3,-257
  x |= SSTATUS_SPIE; // enable interrupts in user mode
    80002968:	0206e693          	ori	a3,a3,32
  asm volatile("csrw sstatus, %0" : : "r" (x));
    8000296c:	10069073          	csrw	sstatus,a3
  w_sstatus(x);

  // set S Exception Program Counter to the saved user pc.
  w_sepc(p->trapframe->epc);
    80002970:	6d58                	ld	a4,152(a0)
  asm volatile("csrw sepc, %0" : : "r" (x));
    80002972:	6f18                	ld	a4,24(a4)
    80002974:	14171073          	csrw	sepc,a4

  // tell trampoline.S the user page table to switch to.
  uint64 satp = MAKE_SATP(p->pagetable);
    80002978:	6948                	ld	a0,144(a0)
    8000297a:	8131                	srli	a0,a0,0xc

  // jump to userret in trampoline.S at the top of memory, which
  // switches to the user page table, restores user registers,
  // and switches to user mode with sret.
  uint64 trampoline_userret = TRAMPOLINE + (userret - trampoline);
    8000297c:	00004717          	auipc	a4,0x4
    80002980:	72070713          	addi	a4,a4,1824 # 8000709c <userret>
    80002984:	8f11                	sub	a4,a4,a2
    80002986:	97ba                	add	a5,a5,a4
  ((void (*)(uint64))trampoline_userret)(satp);
    80002988:	577d                	li	a4,-1
    8000298a:	177e                	slli	a4,a4,0x3f
    8000298c:	8d59                	or	a0,a0,a4
    8000298e:	9782                	jalr	a5
}
    80002990:	60a2                	ld	ra,8(sp)
    80002992:	6402                	ld	s0,0(sp)
    80002994:	0141                	addi	sp,sp,16
    80002996:	8082                	ret

0000000080002998 <clockintr>:
  w_sepc(sepc);
  w_sstatus(sstatus);
}

void clockintr()
{
    80002998:	1101                	addi	sp,sp,-32
    8000299a:	ec06                	sd	ra,24(sp)
    8000299c:	e822                	sd	s0,16(sp)
    8000299e:	e426                	sd	s1,8(sp)
    800029a0:	e04a                	sd	s2,0(sp)
    800029a2:	1000                	addi	s0,sp,32
  acquire(&tickslock);
    800029a4:	00015917          	auipc	s2,0x15
    800029a8:	3ec90913          	addi	s2,s2,1004 # 80017d90 <tickslock>
    800029ac:	854a                	mv	a0,s2
    800029ae:	ffffe097          	auipc	ra,0xffffe
    800029b2:	228080e7          	jalr	552(ra) # 80000bd6 <acquire>
  ticks++;
    800029b6:	00006497          	auipc	s1,0x6
    800029ba:	f3a48493          	addi	s1,s1,-198 # 800088f0 <ticks>
    800029be:	409c                	lw	a5,0(s1)
    800029c0:	2785                	addiw	a5,a5,1
    800029c2:	c09c                	sw	a5,0(s1)
  update_time();
    800029c4:	00000097          	auipc	ra,0x0
    800029c8:	e36080e7          	jalr	-458(ra) # 800027fa <update_time>
  //   // {
  //   //   p->wtime++;
  //   // }
  //   release(&p->lock);
  // }
  wakeup(&ticks);
    800029cc:	8526                	mv	a0,s1
    800029ce:	fffff097          	auipc	ra,0xfffff
    800029d2:	7b4080e7          	jalr	1972(ra) # 80002182 <wakeup>
  release(&tickslock);
    800029d6:	854a                	mv	a0,s2
    800029d8:	ffffe097          	auipc	ra,0xffffe
    800029dc:	2b2080e7          	jalr	690(ra) # 80000c8a <release>
}
    800029e0:	60e2                	ld	ra,24(sp)
    800029e2:	6442                	ld	s0,16(sp)
    800029e4:	64a2                	ld	s1,8(sp)
    800029e6:	6902                	ld	s2,0(sp)
    800029e8:	6105                	addi	sp,sp,32
    800029ea:	8082                	ret

00000000800029ec <devintr>:
// and handle it.
// returns 2 if timer interrupt,
// 1 if other device,
// 0 if not recognized.
int devintr()
{
    800029ec:	1101                	addi	sp,sp,-32
    800029ee:	ec06                	sd	ra,24(sp)
    800029f0:	e822                	sd	s0,16(sp)
    800029f2:	e426                	sd	s1,8(sp)
    800029f4:	1000                	addi	s0,sp,32
  asm volatile("csrr %0, scause" : "=r" (x) );
    800029f6:	14202773          	csrr	a4,scause
  uint64 scause = r_scause();

  if ((scause & 0x8000000000000000L) &&
    800029fa:	00074d63          	bltz	a4,80002a14 <devintr+0x28>
    if (irq)
      plic_complete(irq);

    return 1;
  }
  else if (scause == 0x8000000000000001L)
    800029fe:	57fd                	li	a5,-1
    80002a00:	17fe                	slli	a5,a5,0x3f
    80002a02:	0785                	addi	a5,a5,1

    return 2;
  }
  else
  {
    return 0;
    80002a04:	4501                	li	a0,0
  else if (scause == 0x8000000000000001L)
    80002a06:	06f70363          	beq	a4,a5,80002a6c <devintr+0x80>
  }
}
    80002a0a:	60e2                	ld	ra,24(sp)
    80002a0c:	6442                	ld	s0,16(sp)
    80002a0e:	64a2                	ld	s1,8(sp)
    80002a10:	6105                	addi	sp,sp,32
    80002a12:	8082                	ret
      (scause & 0xff) == 9)
    80002a14:	0ff77793          	andi	a5,a4,255
  if ((scause & 0x8000000000000000L) &&
    80002a18:	46a5                	li	a3,9
    80002a1a:	fed792e3          	bne	a5,a3,800029fe <devintr+0x12>
    int irq = plic_claim();
    80002a1e:	00004097          	auipc	ra,0x4
    80002a22:	bfa080e7          	jalr	-1030(ra) # 80006618 <plic_claim>
    80002a26:	84aa                	mv	s1,a0
    if (irq == UART0_IRQ)
    80002a28:	47a9                	li	a5,10
    80002a2a:	02f50763          	beq	a0,a5,80002a58 <devintr+0x6c>
    else if (irq == VIRTIO0_IRQ)
    80002a2e:	4785                	li	a5,1
    80002a30:	02f50963          	beq	a0,a5,80002a62 <devintr+0x76>
    return 1;
    80002a34:	4505                	li	a0,1
    else if (irq)
    80002a36:	d8f1                	beqz	s1,80002a0a <devintr+0x1e>
      printf("unexpected interrupt irq=%d\n", irq);
    80002a38:	85a6                	mv	a1,s1
    80002a3a:	00006517          	auipc	a0,0x6
    80002a3e:	8c650513          	addi	a0,a0,-1850 # 80008300 <states.0+0x38>
    80002a42:	ffffe097          	auipc	ra,0xffffe
    80002a46:	b46080e7          	jalr	-1210(ra) # 80000588 <printf>
      plic_complete(irq);
    80002a4a:	8526                	mv	a0,s1
    80002a4c:	00004097          	auipc	ra,0x4
    80002a50:	bf0080e7          	jalr	-1040(ra) # 8000663c <plic_complete>
    return 1;
    80002a54:	4505                	li	a0,1
    80002a56:	bf55                	j	80002a0a <devintr+0x1e>
      uartintr();
    80002a58:	ffffe097          	auipc	ra,0xffffe
    80002a5c:	f42080e7          	jalr	-190(ra) # 8000099a <uartintr>
    80002a60:	b7ed                	j	80002a4a <devintr+0x5e>
      virtio_disk_intr();
    80002a62:	00004097          	auipc	ra,0x4
    80002a66:	0a6080e7          	jalr	166(ra) # 80006b08 <virtio_disk_intr>
    80002a6a:	b7c5                	j	80002a4a <devintr+0x5e>
    if (cpuid() == 0)
    80002a6c:	fffff097          	auipc	ra,0xfffff
    80002a70:	f14080e7          	jalr	-236(ra) # 80001980 <cpuid>
    80002a74:	c901                	beqz	a0,80002a84 <devintr+0x98>
  asm volatile("csrr %0, sip" : "=r" (x) );
    80002a76:	144027f3          	csrr	a5,sip
    w_sip(r_sip() & ~2);
    80002a7a:	9bf5                	andi	a5,a5,-3
  asm volatile("csrw sip, %0" : : "r" (x));
    80002a7c:	14479073          	csrw	sip,a5
    return 2;
    80002a80:	4509                	li	a0,2
    80002a82:	b761                	j	80002a0a <devintr+0x1e>
      clockintr();
    80002a84:	00000097          	auipc	ra,0x0
    80002a88:	f14080e7          	jalr	-236(ra) # 80002998 <clockintr>
    80002a8c:	b7ed                	j	80002a76 <devintr+0x8a>

0000000080002a8e <usertrap>:
{
    80002a8e:	711d                	addi	sp,sp,-96
    80002a90:	ec86                	sd	ra,88(sp)
    80002a92:	e8a2                	sd	s0,80(sp)
    80002a94:	e4a6                	sd	s1,72(sp)
    80002a96:	e0ca                	sd	s2,64(sp)
    80002a98:	fc4e                	sd	s3,56(sp)
    80002a9a:	f852                	sd	s4,48(sp)
    80002a9c:	f456                	sd	s5,40(sp)
    80002a9e:	f05a                	sd	s6,32(sp)
    80002aa0:	ec5e                	sd	s7,24(sp)
    80002aa2:	e862                	sd	s8,16(sp)
    80002aa4:	e466                	sd	s9,8(sp)
    80002aa6:	1080                	addi	s0,sp,96
  asm volatile("csrr %0, sstatus" : "=r" (x) );
    80002aa8:	100027f3          	csrr	a5,sstatus
  if ((r_sstatus() & SSTATUS_SPP) != 0)
    80002aac:	1007f793          	andi	a5,a5,256
    80002ab0:	e3b1                	bnez	a5,80002af4 <usertrap+0x66>
  asm volatile("csrw stvec, %0" : : "r" (x));
    80002ab2:	00004797          	auipc	a5,0x4
    80002ab6:	a5e78793          	addi	a5,a5,-1442 # 80006510 <kernelvec>
    80002aba:	10579073          	csrw	stvec,a5
  struct proc *p = myproc();
    80002abe:	fffff097          	auipc	ra,0xfffff
    80002ac2:	eee080e7          	jalr	-274(ra) # 800019ac <myproc>
    80002ac6:	84aa                	mv	s1,a0
  p->trapframe->epc = r_sepc();
    80002ac8:	6d5c                	ld	a5,152(a0)
  asm volatile("csrr %0, sepc" : "=r" (x) );
    80002aca:	14102773          	csrr	a4,sepc
    80002ace:	ef98                	sd	a4,24(a5)
  asm volatile("csrr %0, scause" : "=r" (x) );
    80002ad0:	14202773          	csrr	a4,scause
  if (r_scause() == 8)
    80002ad4:	47a1                	li	a5,8
    80002ad6:	02f70763          	beq	a4,a5,80002b04 <usertrap+0x76>
  else if ((which_dev = devintr()) != 0)
    80002ada:	00000097          	auipc	ra,0x0
    80002ade:	f12080e7          	jalr	-238(ra) # 800029ec <devintr>
    80002ae2:	892a                	mv	s2,a0
    80002ae4:	c949                	beqz	a0,80002b76 <usertrap+0xe8>
  if (killed(p))
    80002ae6:	8526                	mv	a0,s1
    80002ae8:	00000097          	auipc	ra,0x0
    80002aec:	8ea080e7          	jalr	-1814(ra) # 800023d2 <killed>
    80002af0:	c929                	beqz	a0,80002b42 <usertrap+0xb4>
    80002af2:	a099                	j	80002b38 <usertrap+0xaa>
    panic("usertrap: not from user mode");
    80002af4:	00006517          	auipc	a0,0x6
    80002af8:	82c50513          	addi	a0,a0,-2004 # 80008320 <states.0+0x58>
    80002afc:	ffffe097          	auipc	ra,0xffffe
    80002b00:	a42080e7          	jalr	-1470(ra) # 8000053e <panic>
    if (killed(p))
    80002b04:	00000097          	auipc	ra,0x0
    80002b08:	8ce080e7          	jalr	-1842(ra) # 800023d2 <killed>
    80002b0c:	ed39                	bnez	a0,80002b6a <usertrap+0xdc>
    p->trapframe->epc += 4;
    80002b0e:	6cd8                	ld	a4,152(s1)
    80002b10:	6f1c                	ld	a5,24(a4)
    80002b12:	0791                	addi	a5,a5,4
    80002b14:	ef1c                	sd	a5,24(a4)
  asm volatile("csrr %0, sstatus" : "=r" (x) );
    80002b16:	100027f3          	csrr	a5,sstatus
  w_sstatus(r_sstatus() | SSTATUS_SIE);
    80002b1a:	0027e793          	ori	a5,a5,2
  asm volatile("csrw sstatus, %0" : : "r" (x));
    80002b1e:	10079073          	csrw	sstatus,a5
    syscall();
    80002b22:	00001097          	auipc	ra,0x1
    80002b26:	8d8080e7          	jalr	-1832(ra) # 800033fa <syscall>
  if (killed(p))
    80002b2a:	8526                	mv	a0,s1
    80002b2c:	00000097          	auipc	ra,0x0
    80002b30:	8a6080e7          	jalr	-1882(ra) # 800023d2 <killed>
    80002b34:	c911                	beqz	a0,80002b48 <usertrap+0xba>
    80002b36:	4901                	li	s2,0
    exit(-1);
    80002b38:	557d                	li	a0,-1
    80002b3a:	fffff097          	auipc	ra,0xfffff
    80002b3e:	718080e7          	jalr	1816(ra) # 80002252 <exit>
  if (which_dev == 2)
    80002b42:	4789                	li	a5,2
    80002b44:	06f90663          	beq	s2,a5,80002bb0 <usertrap+0x122>
  usertrapret();
    80002b48:	00000097          	auipc	ra,0x0
    80002b4c:	dba080e7          	jalr	-582(ra) # 80002902 <usertrapret>
}
    80002b50:	60e6                	ld	ra,88(sp)
    80002b52:	6446                	ld	s0,80(sp)
    80002b54:	64a6                	ld	s1,72(sp)
    80002b56:	6906                	ld	s2,64(sp)
    80002b58:	79e2                	ld	s3,56(sp)
    80002b5a:	7a42                	ld	s4,48(sp)
    80002b5c:	7aa2                	ld	s5,40(sp)
    80002b5e:	7b02                	ld	s6,32(sp)
    80002b60:	6be2                	ld	s7,24(sp)
    80002b62:	6c42                	ld	s8,16(sp)
    80002b64:	6ca2                	ld	s9,8(sp)
    80002b66:	6125                	addi	sp,sp,96
    80002b68:	8082                	ret
      exit(-1);
    80002b6a:	557d                	li	a0,-1
    80002b6c:	fffff097          	auipc	ra,0xfffff
    80002b70:	6e6080e7          	jalr	1766(ra) # 80002252 <exit>
    80002b74:	bf69                	j	80002b0e <usertrap+0x80>
  asm volatile("csrr %0, scause" : "=r" (x) );
    80002b76:	142025f3          	csrr	a1,scause
    printf("usertrap(): unexpected scause %p pid=%d\n", r_scause(), p->pid);
    80002b7a:	5890                	lw	a2,48(s1)
    80002b7c:	00005517          	auipc	a0,0x5
    80002b80:	7c450513          	addi	a0,a0,1988 # 80008340 <states.0+0x78>
    80002b84:	ffffe097          	auipc	ra,0xffffe
    80002b88:	a04080e7          	jalr	-1532(ra) # 80000588 <printf>
  asm volatile("csrr %0, sepc" : "=r" (x) );
    80002b8c:	141025f3          	csrr	a1,sepc
  asm volatile("csrr %0, stval" : "=r" (x) );
    80002b90:	14302673          	csrr	a2,stval
    printf("            sepc=%p stval=%p\n", r_sepc(), r_stval());
    80002b94:	00005517          	auipc	a0,0x5
    80002b98:	7dc50513          	addi	a0,a0,2012 # 80008370 <states.0+0xa8>
    80002b9c:	ffffe097          	auipc	ra,0xffffe
    80002ba0:	9ec080e7          	jalr	-1556(ra) # 80000588 <printf>
    setkilled(p);
    80002ba4:	8526                	mv	a0,s1
    80002ba6:	00000097          	auipc	ra,0x0
    80002baa:	800080e7          	jalr	-2048(ra) # 800023a6 <setkilled>
    80002bae:	bfb5                	j	80002b2a <usertrap+0x9c>
    printf("%d %d %d\n", ticks, p->pid, p->queue);
    80002bb0:	50b4                	lw	a3,96(s1)
    80002bb2:	5890                	lw	a2,48(s1)
    80002bb4:	00006597          	auipc	a1,0x6
    80002bb8:	d3c5a583          	lw	a1,-708(a1) # 800088f0 <ticks>
    80002bbc:	00005517          	auipc	a0,0x5
    80002bc0:	7d450513          	addi	a0,a0,2004 # 80008390 <states.0+0xc8>
    80002bc4:	ffffe097          	auipc	ra,0xffffe
    80002bc8:	9c4080e7          	jalr	-1596(ra) # 80000588 <printf>
    p->currentticks++;
    80002bcc:	60bc                	ld	a5,64(s1)
    80002bce:	0785                	addi	a5,a5,1
    80002bd0:	e0bc                	sd	a5,64(s1)
    if (p->currentticks % p->ticks == 0 && p->ishandler == 0)
    80002bd2:	7c98                	ld	a4,56(s1)
    80002bd4:	02e7f7b3          	remu	a5,a5,a4
    80002bd8:	e399                	bnez	a5,80002bde <usertrap+0x150>
    80002bda:	68bc                	ld	a5,80(s1)
    80002bdc:	cb99                	beqz	a5,80002bf2 <usertrap+0x164>
  if (killed(p))
    80002bde:	0000e497          	auipc	s1,0xe
    80002be2:	3b248493          	addi	s1,s1,946 # 80010f90 <proc>
      if (p->state == RUNNABLE)
    80002be6:	498d                	li	s3,3
    for (p = proc; p < &proc[NPROC]; p++)
    80002be8:	00015917          	auipc	s2,0x15
    80002bec:	1a890913          	addi	s2,s2,424 # 80017d90 <tickslock>
    80002bf0:	a81d                	j	80002c26 <usertrap+0x198>
      p->pasttrapframe = kalloc();
    80002bf2:	ffffe097          	auipc	ra,0xffffe
    80002bf6:	ef4080e7          	jalr	-268(ra) # 80000ae6 <kalloc>
    80002bfa:	eca8                	sd	a0,88(s1)
      p->ishandler = 1;
    80002bfc:	4785                	li	a5,1
    80002bfe:	e8bc                	sd	a5,80(s1)
      memmove(p->pasttrapframe, p->trapframe, PGSIZE);
    80002c00:	6605                	lui	a2,0x1
    80002c02:	6ccc                	ld	a1,152(s1)
    80002c04:	ffffe097          	auipc	ra,0xffffe
    80002c08:	12a080e7          	jalr	298(ra) # 80000d2e <memmove>
      p->trapframe->epc = p->funcadr;
    80002c0c:	6cdc                	ld	a5,152(s1)
    80002c0e:	64b8                	ld	a4,72(s1)
    80002c10:	ef98                	sd	a4,24(a5)
    80002c12:	b7f1                	j	80002bde <usertrap+0x150>
      release(&p->lock);
    80002c14:	8526                	mv	a0,s1
    80002c16:	ffffe097          	auipc	ra,0xffffe
    80002c1a:	074080e7          	jalr	116(ra) # 80000c8a <release>
    for (p = proc; p < &proc[NPROC]; p++)
    80002c1e:	1b848493          	addi	s1,s1,440
    80002c22:	01248e63          	beq	s1,s2,80002c3e <usertrap+0x1b0>
      acquire(&p->lock);
    80002c26:	8526                	mv	a0,s1
    80002c28:	ffffe097          	auipc	ra,0xffffe
    80002c2c:	fae080e7          	jalr	-82(ra) # 80000bd6 <acquire>
      if (p->state == RUNNABLE)
    80002c30:	4c9c                	lw	a5,24(s1)
    80002c32:	ff3791e3          	bne	a5,s3,80002c14 <usertrap+0x186>
        p->timeofwait++;
    80002c36:	58bc                	lw	a5,112(s1)
    80002c38:	2785                	addiw	a5,a5,1
    80002c3a:	d8bc                	sw	a5,112(s1)
    80002c3c:	bfe1                	j	80002c14 <usertrap+0x186>
    for (p = proc; p < &proc[NPROC]; p++)
    80002c3e:	0000e497          	auipc	s1,0xe
    80002c42:	35248493          	addi	s1,s1,850 # 80010f90 <proc>
      if (p->state == RUNNING)
    80002c46:	4991                	li	s3,4
    for (p = proc; p < &proc[NPROC]; p++)
    80002c48:	00015917          	auipc	s2,0x15
    80002c4c:	14890913          	addi	s2,s2,328 # 80017d90 <tickslock>
    80002c50:	a811                	j	80002c64 <usertrap+0x1d6>
      release(&p->lock);
    80002c52:	8526                	mv	a0,s1
    80002c54:	ffffe097          	auipc	ra,0xffffe
    80002c58:	036080e7          	jalr	54(ra) # 80000c8a <release>
    for (p = proc; p < &proc[NPROC]; p++)
    80002c5c:	1b848493          	addi	s1,s1,440
    80002c60:	01248e63          	beq	s1,s2,80002c7c <usertrap+0x1ee>
      acquire(&p->lock);
    80002c64:	8526                	mv	a0,s1
    80002c66:	ffffe097          	auipc	ra,0xffffe
    80002c6a:	f70080e7          	jalr	-144(ra) # 80000bd6 <acquire>
      if (p->state == RUNNING)
    80002c6e:	4c9c                	lw	a5,24(s1)
    80002c70:	ff3791e3          	bne	a5,s3,80002c52 <usertrap+0x1c4>
        p->sliceticks++;
    80002c74:	50fc                	lw	a5,100(s1)
    80002c76:	2785                	addiw	a5,a5,1
    80002c78:	d0fc                	sw	a5,100(s1)
    80002c7a:	bfe1                	j	80002c52 <usertrap+0x1c4>
    for (p = proc; p < &proc[NPROC]; p++)
    80002c7c:	0000e497          	auipc	s1,0xe
    80002c80:	31448493          	addi	s1,s1,788 # 80010f90 <proc>
      if (p->state == RUNNABLE && p->timeofwait >= 30 && p->queue > 0)
    80002c84:	490d                	li	s2,3
    80002c86:	4a75                	li	s4,29
        if (p->pid >= 9)
    80002c88:	4aa1                	li	s5,8
        else if (p->queue == 1)
    80002c8a:	4b05                	li	s6,1
        else if (p->queue == 2)
    80002c8c:	4c09                	li	s8,2
          p->slicetime = 15;
    80002c8e:	4cbd                	li	s9,15
          printf("%d %d %d\n", ticks, p->pid, p->queue);
    80002c90:	00006b97          	auipc	s7,0x6
    80002c94:	c60b8b93          	addi	s7,s7,-928 # 800088f0 <ticks>
    for (p = proc; p < &proc[NPROC]; p++)
    80002c98:	00015997          	auipc	s3,0x15
    80002c9c:	0f898993          	addi	s3,s3,248 # 80017d90 <tickslock>
    80002ca0:	a8a9                	j	80002cfa <usertrap+0x26c>
          printf("%d %d %d\n", ticks - 1, p->pid, p->queue);
    80002ca2:	000ba583          	lw	a1,0(s7)
    80002ca6:	35fd                	addiw	a1,a1,-1
    80002ca8:	00005517          	auipc	a0,0x5
    80002cac:	6e850513          	addi	a0,a0,1768 # 80008390 <states.0+0xc8>
    80002cb0:	ffffe097          	auipc	ra,0xffffe
    80002cb4:	8d8080e7          	jalr	-1832(ra) # 80000588 <printf>
    80002cb8:	a8a9                	j	80002d12 <usertrap+0x284>
          printf("%d %d %d\n", ticks, p->pid, p->queue);
    80002cba:	000ba583          	lw	a1,0(s7)
    80002cbe:	00005517          	auipc	a0,0x5
    80002cc2:	6d250513          	addi	a0,a0,1746 # 80008390 <states.0+0xc8>
    80002cc6:	ffffe097          	auipc	ra,0xffffe
    80002cca:	8c2080e7          	jalr	-1854(ra) # 80000588 <printf>
    80002cce:	a891                	j	80002d22 <usertrap+0x294>
        else if (p->queue == 1)
    80002cd0:	01678963          	beq	a5,s6,80002ce2 <usertrap+0x254>
        else if (p->queue == 2)
    80002cd4:	05878c63          	beq	a5,s8,80002d2c <usertrap+0x29e>
        else if (p->queue == 3)
    80002cd8:	01279763          	bne	a5,s2,80002ce6 <usertrap+0x258>
          p->slicetime = 15;
    80002cdc:	0794a423          	sw	s9,104(s1)
    80002ce0:	a019                	j	80002ce6 <usertrap+0x258>
          p->slicetime = 3;
    80002ce2:	0724a423          	sw	s2,104(s1)
        p->sliceticks = 0;
    80002ce6:	0604a223          	sw	zero,100(s1)
        p->timeofwait = 0;
    80002cea:	0604a823          	sw	zero,112(s1)
        p->flagforio = 0;
    80002cee:	0604a623          	sw	zero,108(s1)
    for (p = proc; p < &proc[NPROC]; p++)
    80002cf2:	1b848493          	addi	s1,s1,440
    80002cf6:	03348e63          	beq	s1,s3,80002d32 <usertrap+0x2a4>
      if (p->state == RUNNABLE && p->timeofwait >= 30 && p->queue > 0)
    80002cfa:	4c9c                	lw	a5,24(s1)
    80002cfc:	ff279be3          	bne	a5,s2,80002cf2 <usertrap+0x264>
    80002d00:	58bc                	lw	a5,112(s1)
    80002d02:	fefa58e3          	bge	s4,a5,80002cf2 <usertrap+0x264>
    80002d06:	50b4                	lw	a3,96(s1)
    80002d08:	fed055e3          	blez	a3,80002cf2 <usertrap+0x264>
        if (p->pid >= 9)
    80002d0c:	5890                	lw	a2,48(s1)
    80002d0e:	f8cacae3          	blt	s5,a2,80002ca2 <usertrap+0x214>
        p->queue--;
    80002d12:	50bc                	lw	a5,96(s1)
    80002d14:	37fd                	addiw	a5,a5,-1
    80002d16:	0007869b          	sext.w	a3,a5
    80002d1a:	d0bc                	sw	a5,96(s1)
        if (p->pid >= 9)
    80002d1c:	5890                	lw	a2,48(s1)
    80002d1e:	f8cacee3          	blt	s5,a2,80002cba <usertrap+0x22c>
        if (p->queue == 0)
    80002d22:	50bc                	lw	a5,96(s1)
    80002d24:	f7d5                	bnez	a5,80002cd0 <usertrap+0x242>
          p->slicetime = 1;
    80002d26:	0764a423          	sw	s6,104(s1)
    80002d2a:	bf75                	j	80002ce6 <usertrap+0x258>
          p->slicetime = 9;
    80002d2c:	47a5                	li	a5,9
    80002d2e:	d4bc                	sw	a5,104(s1)
    80002d30:	bf5d                	j	80002ce6 <usertrap+0x258>
    for (p = proc; p < &proc[NPROC]; p++)
    80002d32:	0000e497          	auipc	s1,0xe
    80002d36:	25e48493          	addi	s1,s1,606 # 80010f90 <proc>
      if (p->state == RUNNABLE && p->queue == 0 && p->queue < myproc()->queue)
    80002d3a:	498d                	li	s3,3
        myproc()->flagforio = 1;
    80002d3c:	4a05                	li	s4,1
    for (p = proc; p < &proc[NPROC]; p++)
    80002d3e:	00015917          	auipc	s2,0x15
    80002d42:	05290913          	addi	s2,s2,82 # 80017d90 <tickslock>
    80002d46:	a839                	j	80002d64 <usertrap+0x2d6>
        myproc()->flagforio = 1;
    80002d48:	fffff097          	auipc	ra,0xfffff
    80002d4c:	c64080e7          	jalr	-924(ra) # 800019ac <myproc>
    80002d50:	07452623          	sw	s4,108(a0)
        yield();
    80002d54:	fffff097          	auipc	ra,0xfffff
    80002d58:	38e080e7          	jalr	910(ra) # 800020e2 <yield>
    for (p = proc; p < &proc[NPROC]; p++)
    80002d5c:	1b848493          	addi	s1,s1,440
    80002d60:	01248f63          	beq	s1,s2,80002d7e <usertrap+0x2f0>
      if (p->state == RUNNABLE && p->queue == 0 && p->queue < myproc()->queue)
    80002d64:	4c9c                	lw	a5,24(s1)
    80002d66:	ff379be3          	bne	a5,s3,80002d5c <usertrap+0x2ce>
    80002d6a:	50bc                	lw	a5,96(s1)
    80002d6c:	fbe5                	bnez	a5,80002d5c <usertrap+0x2ce>
    80002d6e:	fffff097          	auipc	ra,0xfffff
    80002d72:	c3e080e7          	jalr	-962(ra) # 800019ac <myproc>
    80002d76:	513c                	lw	a5,96(a0)
    80002d78:	fef052e3          	blez	a5,80002d5c <usertrap+0x2ce>
    80002d7c:	b7f1                	j	80002d48 <usertrap+0x2ba>
    for (p = proc; p < &proc[NPROC]; p++)
    80002d7e:	0000e497          	auipc	s1,0xe
    80002d82:	21248493          	addi	s1,s1,530 # 80010f90 <proc>
      if (p->state == RUNNABLE && p->queue == 1 && p->queue < myproc()->queue)
    80002d86:	498d                	li	s3,3
    80002d88:	4a05                	li	s4,1
    for (p = proc; p < &proc[NPROC]; p++)
    80002d8a:	00015917          	auipc	s2,0x15
    80002d8e:	00690913          	addi	s2,s2,6 # 80017d90 <tickslock>
    80002d92:	a029                	j	80002d9c <usertrap+0x30e>
    80002d94:	1b848493          	addi	s1,s1,440
    80002d98:	03248a63          	beq	s1,s2,80002dcc <usertrap+0x33e>
      if (p->state == RUNNABLE && p->queue == 1 && p->queue < myproc()->queue)
    80002d9c:	4c9c                	lw	a5,24(s1)
    80002d9e:	ff379be3          	bne	a5,s3,80002d94 <usertrap+0x306>
    80002da2:	50bc                	lw	a5,96(s1)
    80002da4:	ff4798e3          	bne	a5,s4,80002d94 <usertrap+0x306>
    80002da8:	fffff097          	auipc	ra,0xfffff
    80002dac:	c04080e7          	jalr	-1020(ra) # 800019ac <myproc>
    80002db0:	513c                	lw	a5,96(a0)
    80002db2:	fefa51e3          	bge	s4,a5,80002d94 <usertrap+0x306>
        myproc()->flagforio = 1;
    80002db6:	fffff097          	auipc	ra,0xfffff
    80002dba:	bf6080e7          	jalr	-1034(ra) # 800019ac <myproc>
    80002dbe:	07452623          	sw	s4,108(a0)
        yield();
    80002dc2:	fffff097          	auipc	ra,0xfffff
    80002dc6:	320080e7          	jalr	800(ra) # 800020e2 <yield>
    80002dca:	b7e9                	j	80002d94 <usertrap+0x306>
    for (p = proc; p < &proc[NPROC]; p++)
    80002dcc:	0000e497          	auipc	s1,0xe
    80002dd0:	1c448493          	addi	s1,s1,452 # 80010f90 <proc>
      if (p->state == RUNNABLE && p->queue == 2 && p->queue < myproc()->queue)
    80002dd4:	498d                	li	s3,3
    80002dd6:	4a09                	li	s4,2
        myproc()->flagforio = 1;
    80002dd8:	4a85                	li	s5,1
    for (p = proc; p < &proc[NPROC]; p++)
    80002dda:	00015917          	auipc	s2,0x15
    80002dde:	fb690913          	addi	s2,s2,-74 # 80017d90 <tickslock>
    80002de2:	a029                	j	80002dec <usertrap+0x35e>
    80002de4:	1b848493          	addi	s1,s1,440
    80002de8:	03248a63          	beq	s1,s2,80002e1c <usertrap+0x38e>
      if (p->state == RUNNABLE && p->queue == 2 && p->queue < myproc()->queue)
    80002dec:	4c9c                	lw	a5,24(s1)
    80002dee:	ff379be3          	bne	a5,s3,80002de4 <usertrap+0x356>
    80002df2:	50bc                	lw	a5,96(s1)
    80002df4:	ff4798e3          	bne	a5,s4,80002de4 <usertrap+0x356>
    80002df8:	fffff097          	auipc	ra,0xfffff
    80002dfc:	bb4080e7          	jalr	-1100(ra) # 800019ac <myproc>
    80002e00:	513c                	lw	a5,96(a0)
    80002e02:	fefa51e3          	bge	s4,a5,80002de4 <usertrap+0x356>
        myproc()->flagforio = 1;
    80002e06:	fffff097          	auipc	ra,0xfffff
    80002e0a:	ba6080e7          	jalr	-1114(ra) # 800019ac <myproc>
    80002e0e:	07552623          	sw	s5,108(a0)
        yield();
    80002e12:	fffff097          	auipc	ra,0xfffff
    80002e16:	2d0080e7          	jalr	720(ra) # 800020e2 <yield>
    80002e1a:	b7e9                	j	80002de4 <usertrap+0x356>
    for (p = proc; p < &proc[NPROC]; p++)
    80002e1c:	0000e497          	auipc	s1,0xe
    80002e20:	17448493          	addi	s1,s1,372 # 80010f90 <proc>
      if (p->state == RUNNABLE && p->queue == 3 && p->queue < myproc()->queue)
    80002e24:	490d                	li	s2,3
        myproc()->flagforio = 1;
    80002e26:	4a05                	li	s4,1
    for (p = proc; p < &proc[NPROC]; p++)
    80002e28:	00015997          	auipc	s3,0x15
    80002e2c:	f6898993          	addi	s3,s3,-152 # 80017d90 <tickslock>
    80002e30:	a029                	j	80002e3a <usertrap+0x3ac>
    80002e32:	1b848493          	addi	s1,s1,440
    80002e36:	03348a63          	beq	s1,s3,80002e6a <usertrap+0x3dc>
      if (p->state == RUNNABLE && p->queue == 3 && p->queue < myproc()->queue)
    80002e3a:	4c9c                	lw	a5,24(s1)
    80002e3c:	ff279be3          	bne	a5,s2,80002e32 <usertrap+0x3a4>
    80002e40:	50bc                	lw	a5,96(s1)
    80002e42:	ff2798e3          	bne	a5,s2,80002e32 <usertrap+0x3a4>
    80002e46:	fffff097          	auipc	ra,0xfffff
    80002e4a:	b66080e7          	jalr	-1178(ra) # 800019ac <myproc>
    80002e4e:	513c                	lw	a5,96(a0)
    80002e50:	fef951e3          	bge	s2,a5,80002e32 <usertrap+0x3a4>
        myproc()->flagforio = 1;
    80002e54:	fffff097          	auipc	ra,0xfffff
    80002e58:	b58080e7          	jalr	-1192(ra) # 800019ac <myproc>
    80002e5c:	07452623          	sw	s4,108(a0)
        yield();
    80002e60:	fffff097          	auipc	ra,0xfffff
    80002e64:	282080e7          	jalr	642(ra) # 800020e2 <yield>
    80002e68:	b7e9                	j	80002e32 <usertrap+0x3a4>
    p = myproc();
    80002e6a:	fffff097          	auipc	ra,0xfffff
    80002e6e:	b42080e7          	jalr	-1214(ra) # 800019ac <myproc>
    80002e72:	84aa                	mv	s1,a0
    if (p->sliceticks == p->slicetime)
    80002e74:	5178                	lw	a4,100(a0)
    80002e76:	553c                	lw	a5,104(a0)
    80002e78:	ccf718e3          	bne	a4,a5,80002b48 <usertrap+0xba>
      p->flagforio = 0;
    80002e7c:	06052623          	sw	zero,108(a0)
      if (p->queue < 3)
    80002e80:	513c                	lw	a5,96(a0)
    80002e82:	4709                	li	a4,2
    80002e84:	00f74463          	blt	a4,a5,80002e8c <usertrap+0x3fe>
        p->queue++;
    80002e88:	2785                	addiw	a5,a5,1
    80002e8a:	d13c                	sw	a5,96(a0)
      if (p->pid >= 9)
    80002e8c:	5890                	lw	a2,48(s1)
    80002e8e:	47a1                	li	a5,8
    80002e90:	00c7cf63          	blt	a5,a2,80002eae <usertrap+0x420>
      if (p->queue == 1)
    80002e94:	50bc                	lw	a5,96(s1)
    80002e96:	4705                	li	a4,1
    80002e98:	02e78963          	beq	a5,a4,80002eca <usertrap+0x43c>
      else if (p->queue == 2)
    80002e9c:	4709                	li	a4,2
    80002e9e:	04e78163          	beq	a5,a4,80002ee0 <usertrap+0x452>
      else if (p->queue == 3)
    80002ea2:	470d                	li	a4,3
    80002ea4:	02e79563          	bne	a5,a4,80002ece <usertrap+0x440>
        p->slicetime = 15;
    80002ea8:	47bd                	li	a5,15
    80002eaa:	d4bc                	sw	a5,104(s1)
    80002eac:	a00d                	j	80002ece <usertrap+0x440>
        printf("%d %d %d\n", ticks, p->pid, p->queue);
    80002eae:	50b4                	lw	a3,96(s1)
    80002eb0:	00006597          	auipc	a1,0x6
    80002eb4:	a405a583          	lw	a1,-1472(a1) # 800088f0 <ticks>
    80002eb8:	00005517          	auipc	a0,0x5
    80002ebc:	4d850513          	addi	a0,a0,1240 # 80008390 <states.0+0xc8>
    80002ec0:	ffffd097          	auipc	ra,0xffffd
    80002ec4:	6c8080e7          	jalr	1736(ra) # 80000588 <printf>
    80002ec8:	b7f1                	j	80002e94 <usertrap+0x406>
        p->slicetime = 3;
    80002eca:	478d                	li	a5,3
    80002ecc:	d4bc                	sw	a5,104(s1)
      p->sliceticks = 0;
    80002ece:	0604a223          	sw	zero,100(s1)
      p->timeofwait = 0;
    80002ed2:	0604a823          	sw	zero,112(s1)
      yield();
    80002ed6:	fffff097          	auipc	ra,0xfffff
    80002eda:	20c080e7          	jalr	524(ra) # 800020e2 <yield>
    80002ede:	b1ad                	j	80002b48 <usertrap+0xba>
        p->slicetime = 9;
    80002ee0:	47a5                	li	a5,9
    80002ee2:	d4bc                	sw	a5,104(s1)
    80002ee4:	b7ed                	j	80002ece <usertrap+0x440>

0000000080002ee6 <kerneltrap>:
{
    80002ee6:	7159                	addi	sp,sp,-112
    80002ee8:	f486                	sd	ra,104(sp)
    80002eea:	f0a2                	sd	s0,96(sp)
    80002eec:	eca6                	sd	s1,88(sp)
    80002eee:	e8ca                	sd	s2,80(sp)
    80002ef0:	e4ce                	sd	s3,72(sp)
    80002ef2:	e0d2                	sd	s4,64(sp)
    80002ef4:	fc56                	sd	s5,56(sp)
    80002ef6:	f85a                	sd	s6,48(sp)
    80002ef8:	f45e                	sd	s7,40(sp)
    80002efa:	f062                	sd	s8,32(sp)
    80002efc:	ec66                	sd	s9,24(sp)
    80002efe:	e86a                	sd	s10,16(sp)
    80002f00:	e46e                	sd	s11,8(sp)
    80002f02:	1880                	addi	s0,sp,112
  asm volatile("csrr %0, sepc" : "=r" (x) );
    80002f04:	141029f3          	csrr	s3,sepc
  asm volatile("csrr %0, sstatus" : "=r" (x) );
    80002f08:	10002973          	csrr	s2,sstatus
  asm volatile("csrr %0, scause" : "=r" (x) );
    80002f0c:	142024f3          	csrr	s1,scause
  if ((sstatus & SSTATUS_SPP) == 0)
    80002f10:	10097793          	andi	a5,s2,256
    80002f14:	c3a1                	beqz	a5,80002f54 <kerneltrap+0x6e>
  asm volatile("csrr %0, sstatus" : "=r" (x) );
    80002f16:	100027f3          	csrr	a5,sstatus
  return (x & SSTATUS_SIE) != 0;
    80002f1a:	8b89                	andi	a5,a5,2
  if (intr_get() != 0)
    80002f1c:	e7a1                	bnez	a5,80002f64 <kerneltrap+0x7e>
  if ((which_dev = devintr()) == 0)
    80002f1e:	00000097          	auipc	ra,0x0
    80002f22:	ace080e7          	jalr	-1330(ra) # 800029ec <devintr>
    80002f26:	c539                	beqz	a0,80002f74 <kerneltrap+0x8e>
  if (which_dev == 2 && myproc() != 0 && myproc()->state == RUNNING)
    80002f28:	4789                	li	a5,2
    80002f2a:	08f50263          	beq	a0,a5,80002fae <kerneltrap+0xc8>
  asm volatile("csrw sepc, %0" : : "r" (x));
    80002f2e:	14199073          	csrw	sepc,s3
  asm volatile("csrw sstatus, %0" : : "r" (x));
    80002f32:	10091073          	csrw	sstatus,s2
}
    80002f36:	70a6                	ld	ra,104(sp)
    80002f38:	7406                	ld	s0,96(sp)
    80002f3a:	64e6                	ld	s1,88(sp)
    80002f3c:	6946                	ld	s2,80(sp)
    80002f3e:	69a6                	ld	s3,72(sp)
    80002f40:	6a06                	ld	s4,64(sp)
    80002f42:	7ae2                	ld	s5,56(sp)
    80002f44:	7b42                	ld	s6,48(sp)
    80002f46:	7ba2                	ld	s7,40(sp)
    80002f48:	7c02                	ld	s8,32(sp)
    80002f4a:	6ce2                	ld	s9,24(sp)
    80002f4c:	6d42                	ld	s10,16(sp)
    80002f4e:	6da2                	ld	s11,8(sp)
    80002f50:	6165                	addi	sp,sp,112
    80002f52:	8082                	ret
    panic("kerneltrap: not from supervisor mode");
    80002f54:	00005517          	auipc	a0,0x5
    80002f58:	44c50513          	addi	a0,a0,1100 # 800083a0 <states.0+0xd8>
    80002f5c:	ffffd097          	auipc	ra,0xffffd
    80002f60:	5e2080e7          	jalr	1506(ra) # 8000053e <panic>
    panic("kerneltrap: interrupts enabled");
    80002f64:	00005517          	auipc	a0,0x5
    80002f68:	46450513          	addi	a0,a0,1124 # 800083c8 <states.0+0x100>
    80002f6c:	ffffd097          	auipc	ra,0xffffd
    80002f70:	5d2080e7          	jalr	1490(ra) # 8000053e <panic>
    printf("scause %p\n", scause);
    80002f74:	85a6                	mv	a1,s1
    80002f76:	00005517          	auipc	a0,0x5
    80002f7a:	47250513          	addi	a0,a0,1138 # 800083e8 <states.0+0x120>
    80002f7e:	ffffd097          	auipc	ra,0xffffd
    80002f82:	60a080e7          	jalr	1546(ra) # 80000588 <printf>
  asm volatile("csrr %0, sepc" : "=r" (x) );
    80002f86:	141025f3          	csrr	a1,sepc
  asm volatile("csrr %0, stval" : "=r" (x) );
    80002f8a:	14302673          	csrr	a2,stval
    printf("sepc=%p stval=%p\n", r_sepc(), r_stval());
    80002f8e:	00005517          	auipc	a0,0x5
    80002f92:	46a50513          	addi	a0,a0,1130 # 800083f8 <states.0+0x130>
    80002f96:	ffffd097          	auipc	ra,0xffffd
    80002f9a:	5f2080e7          	jalr	1522(ra) # 80000588 <printf>
    panic("kerneltrap");
    80002f9e:	00005517          	auipc	a0,0x5
    80002fa2:	47250513          	addi	a0,a0,1138 # 80008410 <states.0+0x148>
    80002fa6:	ffffd097          	auipc	ra,0xffffd
    80002faa:	598080e7          	jalr	1432(ra) # 8000053e <panic>
  if (which_dev == 2 && myproc() != 0 && myproc()->state == RUNNING)
    80002fae:	fffff097          	auipc	ra,0xfffff
    80002fb2:	9fe080e7          	jalr	-1538(ra) # 800019ac <myproc>
    80002fb6:	dd25                	beqz	a0,80002f2e <kerneltrap+0x48>
    80002fb8:	fffff097          	auipc	ra,0xfffff
    80002fbc:	9f4080e7          	jalr	-1548(ra) # 800019ac <myproc>
    80002fc0:	4d18                	lw	a4,24(a0)
    80002fc2:	4791                	li	a5,4
    80002fc4:	f6f715e3          	bne	a4,a5,80002f2e <kerneltrap+0x48>
    for (p = proc; p < &proc[NPROC]; p++)
    80002fc8:	0000e497          	auipc	s1,0xe
    80002fcc:	fc848493          	addi	s1,s1,-56 # 80010f90 <proc>
      if (p->state == RUNNABLE)
    80002fd0:	4a8d                	li	s5,3
      if (p->state == RUNNING)
    80002fd2:	4b11                	li	s6,4
    for (p = proc; p < &proc[NPROC]; p++)
    80002fd4:	00015a17          	auipc	s4,0x15
    80002fd8:	dbca0a13          	addi	s4,s4,-580 # 80017d90 <tickslock>
    80002fdc:	a829                	j	80002ff6 <kerneltrap+0x110>
        p->timeofwait++;
    80002fde:	58bc                	lw	a5,112(s1)
    80002fe0:	2785                	addiw	a5,a5,1
    80002fe2:	d8bc                	sw	a5,112(s1)
      release(&p->lock);
    80002fe4:	8526                	mv	a0,s1
    80002fe6:	ffffe097          	auipc	ra,0xffffe
    80002fea:	ca4080e7          	jalr	-860(ra) # 80000c8a <release>
    for (p = proc; p < &proc[NPROC]; p++)
    80002fee:	1b848493          	addi	s1,s1,440
    80002ff2:	03448063          	beq	s1,s4,80003012 <kerneltrap+0x12c>
      acquire(&p->lock);
    80002ff6:	8526                	mv	a0,s1
    80002ff8:	ffffe097          	auipc	ra,0xffffe
    80002ffc:	bde080e7          	jalr	-1058(ra) # 80000bd6 <acquire>
      if (p->state == RUNNABLE)
    80003000:	4c9c                	lw	a5,24(s1)
    80003002:	fd578ee3          	beq	a5,s5,80002fde <kerneltrap+0xf8>
      if (p->state == RUNNING)
    80003006:	fd679fe3          	bne	a5,s6,80002fe4 <kerneltrap+0xfe>
        p->sliceticks++;
    8000300a:	50fc                	lw	a5,100(s1)
    8000300c:	2785                	addiw	a5,a5,1
    8000300e:	d0fc                	sw	a5,100(s1)
    80003010:	bfd1                	j	80002fe4 <kerneltrap+0xfe>
    for (p = proc; p < &proc[NPROC]; p++)
    80003012:	0000e497          	auipc	s1,0xe
    80003016:	f7e48493          	addi	s1,s1,-130 # 80010f90 <proc>
      if (p->state == RUNNABLE && p->timeofwait >= 30 && p->queue > 0)
    8000301a:	4a0d                	li	s4,3
    8000301c:	4b75                	li	s6,29
        if (p->pid >= 9)
    8000301e:	4ba1                	li	s7,8
        else if (p->queue == 1)
    80003020:	4c05                	li	s8,1
        else if (p->queue == 2)
    80003022:	4d09                	li	s10,2
          p->slicetime = 15;
    80003024:	4dbd                	li	s11,15
          printf("%d %d %d\n", ticks, p->pid, p->queue);
    80003026:	00006c97          	auipc	s9,0x6
    8000302a:	8cac8c93          	addi	s9,s9,-1846 # 800088f0 <ticks>
    for (p = proc; p < &proc[NPROC]; p++)
    8000302e:	00015a97          	auipc	s5,0x15
    80003032:	d62a8a93          	addi	s5,s5,-670 # 80017d90 <tickslock>
    80003036:	a8a9                	j	80003090 <kerneltrap+0x1aa>
          printf("%d %d %d\n", ticks - 1, p->pid, p->queue);
    80003038:	000ca583          	lw	a1,0(s9)
    8000303c:	35fd                	addiw	a1,a1,-1
    8000303e:	00005517          	auipc	a0,0x5
    80003042:	35250513          	addi	a0,a0,850 # 80008390 <states.0+0xc8>
    80003046:	ffffd097          	auipc	ra,0xffffd
    8000304a:	542080e7          	jalr	1346(ra) # 80000588 <printf>
    8000304e:	a8a9                	j	800030a8 <kerneltrap+0x1c2>
          printf("%d %d %d\n", ticks, p->pid, p->queue);
    80003050:	000ca583          	lw	a1,0(s9)
    80003054:	00005517          	auipc	a0,0x5
    80003058:	33c50513          	addi	a0,a0,828 # 80008390 <states.0+0xc8>
    8000305c:	ffffd097          	auipc	ra,0xffffd
    80003060:	52c080e7          	jalr	1324(ra) # 80000588 <printf>
    80003064:	a891                	j	800030b8 <kerneltrap+0x1d2>
        else if (p->queue == 1)
    80003066:	01878963          	beq	a5,s8,80003078 <kerneltrap+0x192>
        else if (p->queue == 2)
    8000306a:	05a78c63          	beq	a5,s10,800030c2 <kerneltrap+0x1dc>
        else if (p->queue == 3)
    8000306e:	01479763          	bne	a5,s4,8000307c <kerneltrap+0x196>
          p->slicetime = 15;
